

Microchip MPLAB XC8 Assembler V2.36 build 20220127204148 
                                                                                               Fri Mar 24 08:25:32 2023

Microchip MPLAB XC8 C Compiler v2.36 (Free license) build 20220127204148 Og1 
     1                           	processor	18F47Q10
     2                           	fnconf	rparam,??,?,0
     3                           	pagewidth 120
     4                           	opt	flic
     5                           	psect	smallconst,global,reloc=2,class=SMALLCONST,delta=1,noexec
     6                           	psect	nvBANK0,global,class=BANK0,space=1,delta=1,lowdata,noexec
     7                           	psect	cinit,global,reloc=2,class=CODE,delta=1
     8                           	psect	bssBANK0,global,class=BANK0,space=1,delta=1,lowdata,noexec
     9                           	psect	cstackBANK0,global,class=BANK0,space=1,delta=1,lowdata,noexec
    10                           	psect	cstackCOMRAM,global,class=COMRAM,space=1,delta=1,lowdata,noexec
    11                           	psect	text0,global,reloc=2,class=CODE,delta=1
    12                           	psect	text1,global,reloc=2,class=CODE,delta=1,group=3
    13                           	psect	text2,global,reloc=2,class=CODE,delta=1,group=1
    14                           	psect	text3,global,reloc=2,class=CODE,delta=1,group=1
    15                           	psect	text4,global,reloc=2,class=CODE,delta=1,group=1
    16                           	psect	text5,global,reloc=2,class=CODE,delta=1,group=1
    17                           	psect	text6,global,reloc=2,class=CODE,delta=1,group=3
    18                           	psect	text7,global,reloc=2,class=CODE,delta=1,group=3
    19                           	psect	text8,global,reloc=2,class=CODE,delta=1,group=3
    20                           	psect	text9,global,reloc=2,class=CODE,delta=1
    21                           	psect	text10,global,reloc=2,class=CODE,delta=1
    22                           	psect	text11,global,reloc=2,class=CODE,delta=1,group=2
    23                           	psect	text12,global,reloc=2,class=CODE,delta=1,group=2
    24                           	psect	text13,global,reloc=2,class=CODE,delta=1
    25                           	psect	text14,global,reloc=2,class=CODE,delta=1
    26                           	psect	text15,global,reloc=2,class=CODE,delta=1
    27                           	psect	text16,global,reloc=2,class=CODE,delta=1,inline
    28                           	psect	text17,global,reloc=2,class=CODE,delta=1
    29                           	psect	text18,global,reloc=2,class=CODE,delta=1
    30                           	psect	text19,global,reloc=2,class=CODE,delta=1
    31                           	psect	text20,global,reloc=2,class=CODE,delta=1,inline
    32                           	psect	text21,global,reloc=2,class=CODE,delta=1,inline
    33                           	psect	text22,global,reloc=2,class=CODE,delta=1
    34                           	psect	text23,global,reloc=2,class=CODE,delta=1
    35                           	psect	text24,global,reloc=2,class=CODE,delta=1
    36                           	psect	text25,global,reloc=2,class=CODE,delta=1
    37                           	psect	text26,global,reloc=2,class=CODE,delta=1
    38                           	psect	text27,global,reloc=2,class=CODE,delta=1
    39                           	psect	text28,global,reloc=2,class=CODE,delta=1
    40                           	psect	text29,global,reloc=2,class=CODE,delta=1
    41                           	psect	text30,global,reloc=2,class=CODE,delta=1
    42                           	psect	text31,global,reloc=2,class=CODE,delta=1
    43                           	psect	text32,global,reloc=2,class=CODE,delta=1
    44                           	psect	text33,global,reloc=2,class=CODE,delta=1
    45                           	psect	text34,global,reloc=2,class=CODE,delta=1
    46                           	psect	text35,global,reloc=2,class=CODE,delta=1
    47                           	psect	text36,global,reloc=2,class=CODE,delta=1
    48                           	psect	text37,global,reloc=2,class=CODE,delta=1
    49                           	psect	text38,global,reloc=2,class=CODE,delta=1,inline
    50                           	psect	text39,global,reloc=2,class=CODE,delta=1,inline
    51                           	psect	text40,global,reloc=2,class=CODE,delta=1,inline
    52                           	psect	text41,global,reloc=2,class=CODE,delta=1,inline
    53                           	psect	text42,global,reloc=2,class=CODE,delta=1,inline
    54                           	psect	text43,global,reloc=2,class=CODE,delta=1,inline
    55                           	psect	text44,global,reloc=2,class=CODE,delta=1,inline
    56                           	psect	text45,global,reloc=2,class=CODE,delta=1
    57                           	psect	text46,global,reloc=2,class=CODE,delta=1
    58                           	psect	text47,global,reloc=2,class=CODE,delta=1
    59                           	psect	text48,global,reloc=2,class=CODE,delta=1
    60                           	psect	text49,global,reloc=2,class=CODE,delta=1
    61                           	psect	text50,global,reloc=2,class=CODE,delta=1
    62                           	psect	text51,global,reloc=2,class=CODE,delta=1
    63                           	psect	text52,global,reloc=2,class=CODE,delta=1
    64                           	psect	text53,global,reloc=2,class=CODE,delta=1
    65                           	psect	text54,global,reloc=2,class=CODE,delta=1
    66                           	psect	text55,global,reloc=2,class=CODE,delta=1
    67                           	psect	text56,global,reloc=2,class=CODE,delta=1
    68                           	psect	text57,global,reloc=2,class=CODE,delta=1
    69                           	psect	text58,global,reloc=2,class=CODE,delta=1
    70                           	psect	text59,global,reloc=2,class=CODE,delta=1
    71                           	psect	text60,global,reloc=2,class=CODE,delta=1,inline
    72                           	psect	text61,global,reloc=2,class=CODE,delta=1,inline
    73                           	psect	text62,global,reloc=2,class=CODE,delta=1,inline
    74                           	psect	text63,global,reloc=2,class=CODE,delta=1
    75                           	psect	text64,global,reloc=2,class=CODE,delta=1,inline
    76                           	psect	text65,global,reloc=2,class=CODE,delta=1,inline
    77                           	psect	text66,global,reloc=2,class=CODE,delta=1,inline
    78                           	psect	text67,global,reloc=2,class=CODE,delta=1
    79                           	psect	text68,global,reloc=2,class=CODE,delta=1
    80                           	psect	text69,global,reloc=2,class=CODE,delta=1
    81                           	psect	text70,global,reloc=2,class=CODE,delta=1
    82                           	psect	text71,global,reloc=2,class=CODE,delta=1
    83                           	psect	text72,global,reloc=2,class=CODE,delta=1
    84                           	psect	text73,global,reloc=2,class=CODE,delta=1
    85                           	psect	text74,global,reloc=2,class=CODE,delta=1
    86                           	psect	text75,global,reloc=2,class=CODE,delta=1
    87                           	psect	intsave_regs,global,class=BIGRAM,space=1,delta=1,noexec
    88                           	psect	text76,global,reloc=2,class=CODE,delta=1
    89                           	psect	rparam,global,class=COMRAM,space=1,delta=1,noexec
    90                           	psect	idloc,global,abs,ovrld,class=IDLOC,space=5,delta=1,noexec
    91                           	psect	config,global,abs,ovrld,class=CONFIG,space=4,delta=1,noexec
    92  0000                     
    93                           ; Generated 17/06/2022 GMT
    94                           ; 
    95                           ; Copyright © 2022, Microchip Technology Inc. and its subsidiaries ("Microchip")
    96                           ; All rights reserved.
    97                           ; 
    98                           ; This software is developed by Microchip Technology Inc. and its subsidiaries ("Microch
      +                          ip").
    99                           ; 
   100                           ; Redistribution and use in source and binary forms, with or without modification, are
   101                           ; permitted provided that the following conditions are met:
   102                           ; 
   103                           ;     1. Redistributions of source code must retain the above copyright notice, this lis
      +                          t of
   104                           ;        conditions and the following disclaimer.
   105                           ; 
   106                           ;     2. Redistributions in binary form must reproduce the above copyright notice, this 
      +                          list
   107                           ;        of conditions and the following disclaimer in the documentation and/or other
   108                           ;        materials provided with the distribution. Publication is not required when
   109                           ;        this file is used in an embedded application.
   110                           ; 
   111                           ;     3. Microchip's name may not be used to endorse or promote products derived from th
      +                          is
   112                           ;        software without specific prior written permission.
   113                           ; 
   114                           ; THIS SOFTWARE IS PROVIDED BY MICROCHIP "AS IS" AND ANY EXPRESS OR IMPLIED WARRANTIES,
   115                           ; INCLUDING, BUT NOT LIMITED TO, THE IMPLIED WARRANTIES OF MERCHANTABILITY AND FITNESS F
      +                          OR
   116                           ; PURPOSE ARE DISCLAIMED.  IN NO EVENT SHALL MICROCHIP BE LIABLE FOR ANY DIRECT, INDIREC
      +                          T,
   117                           ; INCIDENTAL, SPECIAL, EXEMPLARY, OR CONSEQUENTIAL DAMAGES (INCLUDING BUT NOT LIMITED TO
   118                           ; PROCUREMENT OF SUBSTITUTE GOODS OR SERVICES; LOSS OF USE, DATA OR PROFITS; OR BUSINESS
   119                           ; INTERRUPTION) HOWSOEVER CAUSED AND ON ANY THEORY OF LIABILITY, WHETHER IN CONTRACT, ST
      +                          RICT
   120                           ; LIABILITY, OR TORT (INCLUDING NEGLIGENCE OR OTHERWISE) ARISING IN ANY WAY OUT OF THE U
      +                          SE OF
   121                           ; THIS SOFTWARE, EVEN IF ADVISED OF THE POSSIBILITY OF SUCH DAMAGE.
   122                           ; 
   123                           ; 
   124                           ; Code-generator required, PIC18F47Q10 Definitions
   125                           ; 
   126                           ; SFR Addresses
   127  0000                     
   128 ;; Function _EUSART2_DefaultFramingErrorHandler is unused but had its address taken
   129  0000                     
   130 ;; Function _EUSART2_DefaultOverrunErrorHandler is unused but had its address taken
   131  0000                     
   132 ;; Function _EUSART2_DefaultErrorHandler is unused but had its address taken
   133  0000                     
   134                           	psect	smallconst
   135  000F00                     __psmallconst:
   136                           	callstack 0
   137  000F00  00                 	db	0
   138  000F01                     _i2c1_fsmStateTable:
   139                           	callstack 0
   140  000F01  EC                 	db	low _I2C1_DO_IDLE
   141  000F02  20                 	db	high _I2C1_DO_IDLE
   142  000F03  00                 	db	low (_I2C1_DO_IDLE shr (0+16))
   143  000F04  9A                 	db	low _I2C1_DO_SEND_ADR_READ
   144  000F05  20                 	db	high _I2C1_DO_SEND_ADR_READ
   145  000F06  00                 	db	low (_I2C1_DO_SEND_ADR_READ shr (0+16))
   146  000F07  8A                 	db	low _I2C1_DO_SEND_ADR_WRITE
   147  000F08  20                 	db	high _I2C1_DO_SEND_ADR_WRITE
   148  000F09  00                 	db	low (_I2C1_DO_SEND_ADR_WRITE shr (0+16))
   149  000F0A  BE                 	db	low _I2C1_DO_TX
   150  000F0B  14                 	db	high _I2C1_DO_TX
   151  000F0C  00                 	db	low (_I2C1_DO_TX shr (0+16))
   152  000F0D  4C                 	db	low _I2C1_DO_RX
   153  000F0E  16                 	db	high _I2C1_DO_RX
   154  000F0F  00                 	db	low (_I2C1_DO_RX shr (0+16))
   155  000F10  E0                 	db	low _I2C1_DO_RCEN
   156  000F11  20                 	db	high _I2C1_DO_RCEN
   157  000F12  00                 	db	low (_I2C1_DO_RCEN shr (0+16))
   158  000F13  CC                 	db	low _I2C1_DO_TX_EMPTY
   159  000F14  19                 	db	high _I2C1_DO_TX_EMPTY
   160  000F15  00                 	db	low (_I2C1_DO_TX_EMPTY shr (0+16))
   161  000F16  3A                 	db	low _I2C1_DO_SEND_RESTART_READ
   162  000F17  21                 	db	high _I2C1_DO_SEND_RESTART_READ
   163  000F18  00                 	db	low (_I2C1_DO_SEND_RESTART_READ shr (0+16))
   164  000F19  32                 	db	low _I2C1_DO_SEND_RESTART_WRITE
   165  000F1A  21                 	db	high _I2C1_DO_SEND_RESTART_WRITE
   166  000F1B  00                 	db	low (_I2C1_DO_SEND_RESTART_WRITE shr (0+16))
   167  000F1C  2A                 	db	low _I2C1_DO_SEND_RESTART
   168  000F1D  21                 	db	high _I2C1_DO_SEND_RESTART
   169  000F1E  00                 	db	low (_I2C1_DO_SEND_RESTART shr (0+16))
   170  000F1F  22                 	db	low _I2C1_DO_SEND_STOP
   171  000F20  21                 	db	high _I2C1_DO_SEND_STOP
   172  000F21  00                 	db	low (_I2C1_DO_SEND_STOP shr (0+16))
   173  000F22  1A                 	db	low _I2C1_DO_RX_ACK
   174  000F23  21                 	db	high _I2C1_DO_RX_ACK
   175  000F24  00                 	db	low (_I2C1_DO_RX_ACK shr (0+16))
   176  000F25  12                 	db	low _I2C1_DO_RX_NACK_STOP
   177  000F26  21                 	db	high _I2C1_DO_RX_NACK_STOP
   178  000F27  00                 	db	low (_I2C1_DO_RX_NACK_STOP shr (0+16))
   179  000F28  0A                 	db	low _I2C1_DO_RX_NACK_RESTART
   180  000F29  21                 	db	high _I2C1_DO_RX_NACK_RESTART
   181  000F2A  00                 	db	low (_I2C1_DO_RX_NACK_RESTART shr (0+16))
   182  000F2B  D4                 	db	low _I2C1_DO_RESET
   183  000F2C  20                 	db	high _I2C1_DO_RESET
   184  000F2D  00                 	db	low (_I2C1_DO_RESET shr (0+16))
   185  000F2E  B6                 	db	low _I2C1_DO_ADDRESS_NACK
   186  000F2F  1A                 	db	high _I2C1_DO_ADDRESS_NACK
   187  000F30  00                 	db	low (_I2C1_DO_ADDRESS_NACK shr (0+16))
   188  000F31                     __end_of_i2c1_fsmStateTable:
   189                           	callstack 0
   190  0000                     _OSCTUNE	set	3800
   191  0000                     _OSCFRQ	set	3801
   192  0000                     _TX2REG	set	3733
   193  0000                     _SP2BRGH	set	3735
   194  0000                     _TX2STA	set	3737
   195  0000                     _INLVLD	set	3869
   196  0000                     _SLRCOND	set	3870
   197  0000                     _ODCOND	set	3871
   198  0000                     _WPUD	set	3872
   199  0000                     _TRISD	set	3978
   200  0000                     _TRISC	set	3977
   201  0000                     _TRISB	set	3976
   202  0000                     _TRISA	set	3975
   203  0000                     _TRISE	set	3979
   204  0000                     _LATC	set	3972
   205  0000                     _LATB	set	3971
   206  000F31                     STR_1:
   207  000F31  0A                 	db	10
   208  000F32  53                 	db	83	;'S'
   209  000F33  65                 	db	101	;'e'
   210  000F34  6E                 	db	110	;'n'
   211  000F35  73                 	db	115	;'s'
   212  000F36  6F                 	db	111	;'o'
   213  000F37  72                 	db	114	;'r'
   214  000F38  20                 	db	32
   215  000F39  74                 	db	116	;'t'
   216  000F3A  65                 	db	101	;'e'
   217  000F3B  6D                 	db	109	;'m'
   218  000F3C  70                 	db	112	;'p'
   219  000F3D  20                 	db	32
   220  000F3E  72                 	db	114	;'r'
   221  000F3F  65                 	db	101	;'e'
   222  000F40  61                 	db	97	;'a'
   223  000F41  64                 	db	100	;'d'
   224  000F42  69                 	db	105	;'i'
   225  000F43  6E                 	db	110	;'n'
   226  000F44  67                 	db	103	;'g'
   227  000F45  20                 	db	32
   228  000F46  28                 	db	40
   229  000F47  43                 	db	67	;'C'
   230  000F48  65                 	db	101	;'e'
   231  000F49  6C                 	db	108	;'l'
   232  000F4A  73                 	db	115	;'s'
   233  000F4B  69                 	db	105	;'i'
   234  000F4C  75                 	db	117	;'u'
   235  000F4D  73                 	db	115	;'s'
   236  000F4E  29                 	db	41
   237  000F4F  3A                 	db	58	;':'
   238  000F50  20                 	db	32
   239  000F51  25                 	db	37
   240  000F52  75                 	db	117	;'u'
   241  000F53  20                 	db	32
   242  000F54  20                 	db	32
   243  000F55  20                 	db	32
   244  000F56  20                 	db	32
   245  000F57  20                 	db	32
   246  000F58  00                 	db	0
   247  000F59  00                 	db	0	; dummy byte at the end
   248  0000                     
   249                           	psect	nvBANK0
   250  0000B3                     __pnvBANK0:
   251                           	callstack 0
   252  0000B3                     _EUSART2_ErrorHandler:
   253                           	callstack 0
   254  0000B3                     	ds	3
   255  0000B6                     _EUSART2_OverrunErrorHandler:
   256                           	callstack 0
   257  0000B6                     	ds	3
   258  0000B9                     _EUSART2_FramingErrorHandler:
   259                           	callstack 0
   260  0000B9                     	ds	3
   261  0000                     _RC2STAbits	set	3736
   262  0000                     _TX2STAbits	set	3737
   263  0000                     _SSP1STATbits	set	3988
   264  0000                     _SSP1CON2bits	set	3990
   265  0000                     _SSP1CON1bits	set	3989
   266  0000                     _RX2PPS	set	3720
   267  0000                     _SSP1CLKPPS	set	3762
   268  0000                     _INLVLA	set	3848
   269  0000                     _SLRCONA	set	3849
   270  0000                     _ODCONA	set	3850
   271  0000                     _WPUA	set	3851
   272  0000                     _ANSELA	set	3852
   273  0000                     _ANSELB	set	3860
   274  0000                     _ANSELC	set	3868
   275  0000                     _ANSELD	set	3873
   276  0000                     _LATA	set	3970
   277  0000                     _LATD	set	3973
   278  0000                     _LATE	set	3974
   279  0000                     _SSP1BUF	set	3985
   280  0000                     _SSP1ADD	set	3986
   281  0000                     _SSP1STAT	set	3988
   282  0000                     _INLVLE	set	3877
   283  0000                     _SLRCONE	set	3878
   284  0000                     _ODCONE	set	3879
   285  0000                     _WPUE	set	3880
   286  0000                     _ANSELE	set	3881
   287  0000                     _INLVLC	set	3864
   288  0000                     _SLRCONC	set	3865
   289  0000                     _ODCONC	set	3866
   290  0000                     _WPUC	set	3867
   291  0000                     _INLVLB	set	3856
   292  0000                     _SLRCONB	set	3857
   293  0000                     _ODCONB	set	3858
   294  0000                     _WPUB	set	3859
   295  0000                     _PIE3bits	set	3776
   296  0000                     _PIR3bits	set	3784
   297  0000                     _SSP1DATPPS	set	3763
   298  0000                     _RB1PPS	set	3819
   299  0000                     _RB2PPS	set	3820
   300  0000                     _RB6PPS	set	3824
   301  0000                     _RD0PPS	set	3834
   302  0000                     _RC2REG	set	3732
   303  0000                     _SP2BRGL	set	3734
   304  0000                     _RC2STA	set	3736
   305  0000                     _BAUD2CON	set	3738
   306  0000                     _SSP1CON2	set	3990
   307  0000                     _SSP1CON1	set	3989
   308  0000                     _OSCCON1	set	3795
   309  0000                     _OSCCON3	set	3797
   310  0000                     _OSCEN	set	3799
   311  0000                     _PMD0	set	3804
   312  0000                     _PMD5	set	3809
   313  0000                     _PMD4	set	3808
   314  0000                     _PMD3	set	3807
   315  0000                     _PMD2	set	3806
   316  0000                     _PMD1	set	3805
   317                           
   318                           ; #config settings
   319                           
   320                           	psect	cinit
   321  002066                     __pcinit:
   322                           	callstack 0
   323  002066                     start_initialization:
   324                           	callstack 0
   325  002066                     __initialization:
   326                           	callstack 0
   327                           
   328                           ; Clear objects allocated to BANK0 (83 bytes)
   329  002066  EE00  F060         	lfsr	0,__pbssBANK0
   330  00206A  0E53               	movlw	83
   331  00206C                     clear_0:
   332  00206C  6AEE               	clrf	postinc0,c
   333  00206E  06E8               	decf	wreg,f,c
   334  002070  E1FD               	bnz	clear_0
   335  002072                     end_of_initialization:
   336                           	callstack 0
   337  002072                     __end_of__initialization:
   338                           	callstack 0
   339  002072  0100               	movlb	0
   340  002074  EFC4  F00D         	goto	_main	;jump to C main() function
   341                           
   342                           	psect	bssBANK0
   343  000060                     __pbssBANK0:
   344                           	callstack 0
   345  000060                     _I2C1_Status:
   346                           	callstack 0
   347  000060                     	ds	42
   348  00008A                     _nout:
   349                           	callstack 0
   350  00008A                     	ds	2
   351  00008C                     _width:
   352                           	callstack 0
   353  00008C                     	ds	2
   354  00008E                     _prec:
   355                           	callstack 0
   356  00008E                     	ds	2
   357  000090                     _flags:
   358                           	callstack 0
   359  000090                     	ds	2
   360  000092                     _eusart2RxLastError:
   361                           	callstack 0
   362  000092                     	ds	1
   363  000093                     _dbuf:
   364                           	callstack 0
   365  000093                     	ds	32
   366                           
   367                           	psect	cstackBANK0
   368  0000BC                     __pcstackBANK0:
   369                           	callstack 0
   370  0000BC                     ??_main:
   371                           
   372                           ; 1 bytes @ 0x0
   373  0000BC                     	ds	3
   374                           
   375                           	psect	cstackCOMRAM
   376  000001                     __pcstackCOMRAM:
   377                           	callstack 0
   378  000001                     ?_strlen:
   379                           	callstack 0
   380  000001                     ?___lodiv:
   381                           	callstack 0
   382  000001                     ?___lomod:
   383                           	callstack 0
   384  000001                     I2C1_Open@address:
   385                           	callstack 0
   386  000001                     I2C1_Close@returnValue:
   387                           	callstack 0
   388  000001                     I2C1_MasterSendTxData@data:
   389                           	callstack 0
   390  000001                     EUSART2_Write@txData:
   391                           	callstack 0
   392  000001                     I2C1_SetBuffer@buffer:
   393                           	callstack 0
   394  000001                     strlen@s:
   395                           	callstack 0
   396  000001                     I2C1_SetCallback@cb:
   397                           	callstack 0
   398  000001                     EUSART2_SetFramingErrorHandler@interruptHandler:
   399                           	callstack 0
   400  000001                     EUSART2_SetOverrunErrorHandler@interruptHandler:
   401                           	callstack 0
   402  000001                     EUSART2_SetErrorHandler@interruptHandler:
   403                           	callstack 0
   404  000001                     ___lodiv@dividend:
   405                           	callstack 0
   406  000001                     ___lomod@dividend:
   407                           	callstack 0
   408                           
   409                           ; 8 bytes @ 0x0
   410  000001                     	ds	1
   411  000002                     I2C1_Open@returnValue:
   412                           	callstack 0
   413  000002                     putch@txData:
   414                           	callstack 0
   415                           
   416                           ; 1 bytes @ 0x1
   417  000002                     	ds	1
   418  000003                     I2C1_SetBuffer@bufferSize:
   419                           	callstack 0
   420  000003                     fputc@c:
   421                           	callstack 0
   422  000003                     strlen@a:
   423                           	callstack 0
   424                           
   425                           ; 2 bytes @ 0x2
   426  000003                     	ds	1
   427  000004                     I2C1_SetCallback@ptr:
   428                           	callstack 0
   429                           
   430                           ; 2 bytes @ 0x3
   431  000004                     	ds	1
   432  000005                     fputc@fp:
   433                           	callstack 0
   434                           
   435                           ; 2 bytes @ 0x4
   436  000005                     	ds	1
   437  000006                     I2C1_SetCallback@idx:
   438                           	callstack 0
   439                           
   440                           ; 1 bytes @ 0x5
   441  000006                     	ds	1
   442  000007                     ??_fputc:
   443  000007                     I2C1_SetDataCompleteCallback@cb:
   444                           	callstack 0
   445  000007                     I2C1_SetAddressNackCallback@cb:
   446                           	callstack 0
   447                           
   448                           ; 3 bytes @ 0x6
   449  000007                     	ds	2
   450  000009                     ___lodiv@divisor:
   451                           	callstack 0
   452  000009                     ___lomod@divisor:
   453                           	callstack 0
   454                           
   455                           ; 8 bytes @ 0x8
   456  000009                     	ds	1
   457  00000A                     I2C1_SetDataCompleteCallback@ptr:
   458                           	callstack 0
   459  00000A                     I2C1_SetAddressNackCallback@ptr:
   460                           	callstack 0
   461                           
   462                           ; 2 bytes @ 0x9
   463  00000A                     	ds	2
   464  00000C                     wr1RegCompleteHandler@p:
   465                           	callstack 0
   466  00000C                     rd1RegCompleteHandler@p:
   467                           	callstack 0
   468  00000C                     rd2RegCompleteHandler@p:
   469                           	callstack 0
   470  00000C                     wr2RegCompleteHandler@p:
   471                           	callstack 0
   472  00000C                     rdBlkRegCompleteHandler@p:
   473                           	callstack 0
   474  00000C                     rd1RegCompleteHandler@i2c1_master_example$F145@ptr:
   475                           	callstack 0
   476  00000C                     rd2RegCompleteHandler@i2c1_master_example$F156@ptr:
   477                           	callstack 0
   478  00000C                     wr1RegCompleteHandler@i2c1_master_example$F162@ptr:
   479                           	callstack 0
   480  00000C                     wr2RegCompleteHandler@i2c1_master_example$F168@ptr:
   481                           	callstack 0
   482  00000C                     rdBlkRegCompleteHandler@i2c1_master_example$F179@ptr:
   483                           	callstack 0
   484  00000C                     I2C1_CallbackReturnReset@funPtr:
   485                           	callstack 0
   486  00000C                     fputs@s:
   487                           	callstack 0
   488                           
   489                           ; 2 bytes @ 0xB
   490  00000C                     	ds	2
   491  00000E                     ??_I2C1_DO_TX:
   492  00000E                     ??_I2C1_DO_RX:
   493  00000E                     ??_I2C1_DO_TX_EMPTY:
   494  00000E                     ??_I2C1_DO_ADDRESS_NACK:
   495  00000E                     fputs@fp:
   496                           	callstack 0
   497                           
   498                           ; 2 bytes @ 0xD
   499  00000E                     	ds	2
   500  000010                     I2C1_MasterOperation@read:
   501                           	callstack 0
   502  000010                     fputs@c:
   503                           	callstack 0
   504                           
   505                           ; 1 bytes @ 0xF
   506  000010                     	ds	1
   507  000011                     I2C1_MasterOperation@returnValue:
   508                           	callstack 0
   509  000011                     ___lomod@counter:
   510                           	callstack 0
   511  000011                     fputs@i:
   512                           	callstack 0
   513  000011                     ___lodiv@quotient:
   514                           	callstack 0
   515                           
   516                           ; 8 bytes @ 0x10
   517  000011                     	ds	1
   518  000012                     ?_i2c_read2ByteRegister:
   519                           	callstack 0
   520  000012                     i2c_read2ByteRegister@reg:
   521                           	callstack 0
   522                           
   523                           ; 1 bytes @ 0x11
   524  000012                     	ds	1
   525  000013                     ?_pad:
   526                           	callstack 0
   527  000013                     pad@fp:
   528                           	callstack 0
   529                           
   530                           ; 2 bytes @ 0x12
   531  000013                     	ds	1
   532  000014                     ??_i2c_read2ByteRegister:
   533                           
   534                           ; 1 bytes @ 0x13
   535  000014                     	ds	1
   536  000015                     pad@buf:
   537                           	callstack 0
   538                           
   539                           ; 2 bytes @ 0x14
   540  000015                     	ds	2
   541  000017                     i2c_read2ByteRegister@address:
   542                           	callstack 0
   543  000017                     pad@p:
   544                           	callstack 0
   545                           
   546                           ; 2 bytes @ 0x16
   547  000017                     	ds	1
   548  000018                     i2c_read2ByteRegister@result:
   549                           	callstack 0
   550                           
   551                           ; 2 bytes @ 0x17
   552  000018                     	ds	1
   553  000019                     ??_pad:
   554  000019                     ___lodiv@counter:
   555                           	callstack 0
   556                           
   557                           ; 1 bytes @ 0x18
   558  000019                     	ds	1
   559  00001A                     pad@i:
   560                           	callstack 0
   561                           
   562                           ; 2 bytes @ 0x19
   563  00001A                     	ds	2
   564  00001C                     pad@w:
   565                           	callstack 0
   566                           
   567                           ; 2 bytes @ 0x1B
   568  00001C                     	ds	2
   569  00001E                     ?_utoa:
   570                           	callstack 0
   571  00001E                     utoa@fp:
   572                           	callstack 0
   573                           
   574                           ; 2 bytes @ 0x1D
   575  00001E                     	ds	2
   576  000020                     utoa@d:
   577                           	callstack 0
   578                           
   579                           ; 8 bytes @ 0x1F
   580  000020                     	ds	8
   581  000028                     ??_utoa:
   582                           
   583                           ; 1 bytes @ 0x27
   584  000028                     	ds	8
   585  000030                     utoa@p:
   586                           	callstack 0
   587                           
   588                           ; 2 bytes @ 0x2F
   589  000030                     	ds	2
   590  000032                     utoa@w:
   591                           	callstack 0
   592                           
   593                           ; 2 bytes @ 0x31
   594  000032                     	ds	2
   595  000034                     utoa@n:
   596                           	callstack 0
   597                           
   598                           ; 8 bytes @ 0x33
   599  000034                     	ds	8
   600  00003C                     utoa@i:
   601                           	callstack 0
   602                           
   603                           ; 2 bytes @ 0x3B
   604  00003C                     	ds	2
   605  00003E                     ?_vfpfcnvrt:
   606                           	callstack 0
   607  00003E                     vfpfcnvrt@fp:
   608                           	callstack 0
   609                           
   610                           ; 2 bytes @ 0x3D
   611  00003E                     	ds	2
   612  000040                     vfpfcnvrt@fmt:
   613                           	callstack 0
   614                           
   615                           ; 2 bytes @ 0x3F
   616  000040                     	ds	2
   617  000042                     vfpfcnvrt@ap:
   618                           	callstack 0
   619                           
   620                           ; 2 bytes @ 0x41
   621  000042                     	ds	2
   622  000044                     ??_vfpfcnvrt:
   623                           
   624                           ; 1 bytes @ 0x43
   625  000044                     	ds	4
   626  000048                     vfpfcnvrt@llu:
   627                           	callstack 0
   628                           
   629                           ; 8 bytes @ 0x47
   630  000048                     	ds	8
   631  000050                     ?_vfprintf:
   632                           	callstack 0
   633  000050                     vfprintf@fp:
   634                           	callstack 0
   635                           
   636                           ; 2 bytes @ 0x4F
   637  000050                     	ds	2
   638  000052                     vfprintf@fmt:
   639                           	callstack 0
   640                           
   641                           ; 2 bytes @ 0x51
   642  000052                     	ds	2
   643  000054                     vfprintf@ap:
   644                           	callstack 0
   645                           
   646                           ; 2 bytes @ 0x53
   647  000054                     	ds	2
   648  000056                     vfprintf@cfmt:
   649                           	callstack 0
   650                           
   651                           ; 2 bytes @ 0x55
   652  000056                     	ds	2
   653  000058                     ?_printf:
   654                           	callstack 0
   655  000058                     printf@fmt:
   656                           	callstack 0
   657                           
   658                           ; 2 bytes @ 0x57
   659  000058                     	ds	4
   660  00005C                     printf@ap:
   661                           	callstack 0
   662                           
   663                           ; 2 bytes @ 0x5B
   664  00005C                     	ds	2
   665  00005E                     main@sensor_val:
   666                           	callstack 0
   667                           
   668                           ; 2 bytes @ 0x5D
   669  00005E                     	ds	2
   670                           
   671 ;;
   672 ;;Main: autosize = 0, tempsize = 3, incstack = 0, save=0
   673 ;;
   674 ;; *************** function _main *****************
   675 ;; Defined at:
   676 ;;		line 52 in file "main.c"
   677 ;; Parameters:    Size  Location     Type
   678 ;;		None
   679 ;; Auto vars:     Size  Location     Type
   680 ;;  sensor_val      2   93[COMRAM] unsigned short 
   681 ;; Return value:  Size  Location     Type
   682 ;;                  1    wreg      void 
   683 ;; Registers used:
   684 ;;		wreg, fsr1l, fsr1h, fsr2l, fsr2h, status,2, status,0, pcl, pclath, pclatu, tosl, tblptrl, tblptrh, tblptru, prodl, p
      +rodh, cstack
   685 ;; Tracked objects:
   686 ;;		On entry : 0/0
   687 ;;		On exit  : 0/0
   688 ;;		Unchanged: 0/0
   689 ;; Data sizes:     COMRAM   BANK0   BANK1   BANK2   BANK3   BANK4   BANK5   BANK6   BANK7   BANK8   BANK9  BANK10  BANK1
      +1  BANK12  BANK14
   690 ;;      Params:         0       0       0       0       0       0       0       0       0       0       0       0       
      +0       0       0
   691 ;;      Locals:         2       0       0       0       0       0       0       0       0       0       0       0       
      +0       0       0
   692 ;;      Temps:          0       3       0       0       0       0       0       0       0       0       0       0       
      +0       0       0
   693 ;;      Totals:         2       3       0       0       0       0       0       0       0       0       0       0       
      +0       0       0
   694 ;;Total ram usage:        5 bytes
   695 ;; Hardware stack levels required when called: 9
   696 ;; This function calls:
   697 ;;		_SYSTEM_Initialize
   698 ;;		_i2c_read2ByteRegister
   699 ;;		_printf
   700 ;; This function is called by:
   701 ;;		Startup code after reset
   702 ;; This function uses a non-reentrant model
   703 ;;
   704                           
   705                           	psect	text0
   706  001B88                     __ptext0:
   707                           	callstack 0
   708  001B88                     _main:
   709                           	callstack 22
   710  001B88                     
   711                           ;main.c: 55:     SYSTEM_Initialize();
   712  001B88  EC14  F010         	call	_SYSTEM_Initialize	;wreg free
   713  001B8C                     l3533:
   714                           
   715                           ;main.c: 76:     {;main.c: 78:         sensor_val = i2c_read2ByteRegister(0b1100000, 0b0
      +                          0000000);
   716  001B8C  0E00               	movlw	0
   717  001B8E  6E12               	movwf	i2c_read2ByteRegister@reg^0,c
   718  001B90  0E60               	movlw	96
   719  001B92  EC61  F00C         	call	_i2c_read2ByteRegister
   720  001B96  C012  F05E         	movff	?_i2c_read2ByteRegister,main@sensor_val
   721  001B9A  C013  F05F         	movff	?_i2c_read2ByteRegister+1,main@sensor_val+1
   722  001B9E                     
   723                           ;main.c: 79:         printf("\nSensor temp reading (Celsius): %u     ", (sensor_val >> 4
      +                          ));
   724  001B9E  0E31               	movlw	low STR_1
   725  001BA0  6E58               	movwf	printf@fmt^0,c
   726  001BA2  0E0F               	movlw	high STR_1
   727  001BA4  6E59               	movwf	(printf@fmt+1)^0,c
   728  001BA6  C05E  F0BC         	movff	main@sensor_val,??_main
   729  001BAA  C05F  F0BD         	movff	main@sensor_val+1,??_main+1
   730  001BAE  0E04               	movlw	4
   731  001BB0  0100               	movlb	0	; () banked
   732  001BB2  6FBE               	movwf	(??_main+2)& (0+255),b
   733  001BB4                     u1705:
   734  001BB4  90D8               	bcf	status,0,c
   735  001BB6  33BD               	rrcf	(??_main+1)& (0+255),f,b
   736  001BB8  33BC               	rrcf	??_main& (0+255),f,b
   737  001BBA  2FBE               	decfsz	(??_main+2)& (0+255),f,b
   738  001BBC  EFDA  F00D         	goto	u1705
   739  001BC0  C0BC  F05A         	movff	??_main,?_printf+2
   740  001BC4  C0BD  F05B         	movff	??_main+1,?_printf+3
   741  001BC8  EC8D  F00F         	call	_printf	;wreg free
   742  001BCC                     
   743                           ;main.c: 80:         __nop();
   744  001BCC  F000               	nop	
   745  001BCE                     
   746                           ;main.c: 81:         __nop();
   747  001BCE  F000               	nop	
   748  001BD0                     
   749                           ;main.c: 82:         __nop();
   750  001BD0  F000               	nop	
   751  001BD2  EFC6  F00D         	goto	l3533
   752  001BD6  EF00  F000         	goto	start
   753  001BDA                     __end_of_main:
   754                           	callstack 0
   755                           
   756 ;; *************** function _printf *****************
   757 ;; Defined at:
   758 ;;		line 5 in file "C:\Program Files\Microchip\xc8\v2.36\pic\sources\c99\common\printf.c"
   759 ;; Parameters:    Size  Location     Type
   760 ;;  fmt             2   87[COMRAM] PTR const unsigned char 
   761 ;;		 -> STR_1(40), 
   762 ;; Auto vars:     Size  Location     Type
   763 ;;  ap              2   91[COMRAM] PTR void [1]
   764 ;;		 -> ?_printf(2), 
   765 ;;  ret             2    0        int 
   766 ;; Return value:  Size  Location     Type
   767 ;;                  2   87[COMRAM] int 
   768 ;; Registers used:
   769 ;;		wreg, fsr1l, fsr1h, fsr2l, fsr2h, status,2, status,0, tblptrl, tblptrh, tblptru, cstack
   770 ;; Tracked objects:
   771 ;;		On entry : 0/0
   772 ;;		On exit  : 0/0
   773 ;;		Unchanged: 0/0
   774 ;; Data sizes:     COMRAM   BANK0   BANK1   BANK2   BANK3   BANK4   BANK5   BANK6   BANK7   BANK8   BANK9  BANK10  BANK1
      +1  BANK12  BANK14
   775 ;;      Params:         4       0       0       0       0       0       0       0       0       0       0       0       
      +0       0       0
   776 ;;      Locals:         2       0       0       0       0       0       0       0       0       0       0       0       
      +0       0       0
   777 ;;      Temps:          0       0       0       0       0       0       0       0       0       0       0       0       
      +0       0       0
   778 ;;      Totals:         6       0       0       0       0       0       0       0       0       0       0       0       
      +0       0       0
   779 ;;Total ram usage:        6 bytes
   780 ;; Hardware stack levels used: 1
   781 ;; Hardware stack levels required when called: 8
   782 ;; This function calls:
   783 ;;		_vfprintf
   784 ;; This function is called by:
   785 ;;		_main
   786 ;; This function uses a non-reentrant model
   787 ;;
   788                           
   789                           	psect	text1
   790  001F1A                     __ptext1:
   791                           	callstack 0
   792  001F1A                     _printf:
   793                           	callstack 22
   794  001F1A  0E5A               	movlw	low (?_printf+2)
   795  001F1C  6E5C               	movwf	printf@ap^0,c
   796  001F1E  0E00               	movlw	high (?_printf+2)
   797  001F20  6E5D               	movwf	(printf@ap+1)^0,c
   798  001F22  0E00               	movlw	0
   799  001F24  6E50               	movwf	vfprintf@fp^0,c
   800  001F26  0E00               	movlw	0
   801  001F28  6E51               	movwf	(vfprintf@fp+1)^0,c
   802  001F2A  C058  F052         	movff	printf@fmt,vfprintf@fmt
   803  001F2E  C059  F053         	movff	printf@fmt+1,vfprintf@fmt+1
   804  001F32  0E5C               	movlw	low printf@ap
   805  001F34  6E54               	movwf	vfprintf@ap^0,c
   806  001F36  0E00               	movlw	high printf@ap
   807  001F38  6E55               	movwf	(vfprintf@ap+1)^0,c
   808  001F3A  EC91  F00D         	call	_vfprintf	;wreg free
   809  001F3E  0012               	return		;funcret
   810  001F40                     __end_of_printf:
   811                           	callstack 0
   812                           
   813 ;; *************** function _vfprintf *****************
   814 ;; Defined at:
   815 ;;		line 1390 in file "C:\Program Files\Microchip\xc8\v2.36\pic\sources\c99\common\doprnt.c"
   816 ;; Parameters:    Size  Location     Type
   817 ;;  fp              2   79[COMRAM] PTR struct _IO_FILE
   818 ;;		 -> NULL(0), 
   819 ;;  fmt             2   81[COMRAM] PTR const unsigned char 
   820 ;;		 -> STR_1(40), 
   821 ;;  ap              2   83[COMRAM] PTR PTR void 
   822 ;;		 -> printf@ap(2), 
   823 ;; Auto vars:     Size  Location     Type
   824 ;;  cfmt            2   85[COMRAM] PTR unsigned char 
   825 ;;		 -> STR_1(40), 
   826 ;; Return value:  Size  Location     Type
   827 ;;                  2   79[COMRAM] int 
   828 ;; Registers used:
   829 ;;		wreg, fsr1l, fsr1h, fsr2l, fsr2h, status,2, status,0, tblptrl, tblptrh, tblptru, cstack
   830 ;; Tracked objects:
   831 ;;		On entry : 0/0
   832 ;;		On exit  : 0/0
   833 ;;		Unchanged: 0/0
   834 ;; Data sizes:     COMRAM   BANK0   BANK1   BANK2   BANK3   BANK4   BANK5   BANK6   BANK7   BANK8   BANK9  BANK10  BANK1
      +1  BANK12  BANK14
   835 ;;      Params:         6       0       0       0       0       0       0       0       0       0       0       0       
      +0       0       0
   836 ;;      Locals:         2       0       0       0       0       0       0       0       0       0       0       0       
      +0       0       0
   837 ;;      Temps:          0       0       0       0       0       0       0       0       0       0       0       0       
      +0       0       0
   838 ;;      Totals:         8       0       0       0       0       0       0       0       0       0       0       0       
      +0       0       0
   839 ;;Total ram usage:        8 bytes
   840 ;; Hardware stack levels used: 1
   841 ;; Hardware stack levels required when called: 7
   842 ;; This function calls:
   843 ;;		_vfpfcnvrt
   844 ;; This function is called by:
   845 ;;		_printf
   846 ;; This function uses a non-reentrant model
   847 ;;
   848                           
   849                           	psect	text2
   850  001B22                     __ptext2:
   851                           	callstack 0
   852  001B22                     _vfprintf:
   853                           	callstack 22
   854  001B22                     
   855                           ;C:\Program Files\Microchip\xc8\v2.36\pic\sources\c99\common\doprnt.c: 1390: int vfprint
      +                          f(FILE *fp, const char *fmt, va_list ap);C:\Program Files\Microchip\xc8\v2.36\pic\source
      +                          s\c99\common\doprnt.c: 1391: {;C:\Program Files\Microchip\xc8\v2.36\pic\sources\c99\comm
      +                          on\doprnt.c: 1393:     char *cfmt;;C:\Program Files\Microchip\xc8\v2.36\pic\sources\c99\
      +                          common\doprnt.c: 1395:     cfmt = (char *)fmt;
   856  001B22  C052  F056         	movff	vfprintf@fmt,vfprintf@cfmt
   857  001B26  C053  F057         	movff	vfprintf@fmt+1,vfprintf@cfmt+1
   858  001B2A                     
   859                           ;C:\Program Files\Microchip\xc8\v2.36\pic\sources\c99\common\doprnt.c: 1396:     nout = 
      +                          0;
   860  001B2A  0E00               	movlw	0
   861  001B2C  0100               	movlb	0	; () banked
   862  001B2E  6F8B               	movwf	(_nout+1)& (0+255),b
   863  001B30  0E00               	movlw	0
   864  001B32  6F8A               	movwf	_nout& (0+255),b
   865                           
   866                           ;C:\Program Files\Microchip\xc8\v2.36\pic\sources\c99\common\doprnt.c: 1397:     while (
      +                          *cfmt) {
   867  001B34  EFAF  F00D         	goto	l3251
   868  001B38                     l3249:
   869                           
   870                           ; BSR set to: 0
   871                           ;C:\Program Files\Microchip\xc8\v2.36\pic\sources\c99\common\doprnt.c: 1398:         nou
      +                          t += vfpfcnvrt(fp, &cfmt, ap);
   872  001B38  C050  F03E         	movff	vfprintf@fp,vfpfcnvrt@fp
   873  001B3C  C051  F03F         	movff	vfprintf@fp+1,vfpfcnvrt@fp+1
   874  001B40  0E56               	movlw	low vfprintf@cfmt
   875  001B42  6E40               	movwf	vfpfcnvrt@fmt^0,c
   876  001B44  0E00               	movlw	high vfprintf@cfmt
   877  001B46  6E41               	movwf	(vfpfcnvrt@fmt+1)^0,c
   878  001B48  C054  F042         	movff	vfprintf@ap,vfpfcnvrt@ap
   879  001B4C  C055  F043         	movff	vfprintf@ap+1,vfpfcnvrt@ap+1
   880  001B50  ECAE  F008         	call	_vfpfcnvrt	;wreg free
   881  001B54  503E               	movf	?_vfpfcnvrt^0,w,c
   882  001B56  0100               	movlb	0	; () banked
   883  001B58  278A               	addwf	_nout& (0+255),f,b
   884  001B5A  503F               	movf	(?_vfpfcnvrt+1)^0,w,c
   885  001B5C  238B               	addwfc	(_nout+1)& (0+255),f,b
   886  001B5E                     l3251:
   887                           
   888                           ; BSR set to: 0
   889                           ;C:\Program Files\Microchip\xc8\v2.36\pic\sources\c99\common\doprnt.c: 1397:     while (
      +                          *cfmt) {
   890  001B5E  C056  FFF6         	movff	vfprintf@cfmt,tblptrl
   891  001B62  C057  FFF7         	movff	vfprintf@cfmt+1,tblptrh
   892  001B66                     	if	0	;tblptru may be non-zero
   893  001B66                     	endif
   894  001B66                     	if	1	;Program memory is > 0xFFFF, there are 3 active tblptr bytes
   895  001B66  0E00               	movlw	low (__mediumconst shr (0+16))
   896  001B68  6EF8               	movwf	tblptru,c
   897  001B6A                     	endif
   898  001B6A  0008               	tblrd		*
   899  001B6C  50F5               	movf	tablat,w,c
   900  001B6E  0900               	iorlw	0
   901  001B70  A4D8               	btfss	status,2,c
   902  001B72  EFBD  F00D         	goto	u1351
   903  001B76  EFBF  F00D         	goto	u1350
   904  001B7A                     u1351:
   905  001B7A  EF9C  F00D         	goto	l3249
   906  001B7E                     u1350:
   907  001B7E                     
   908                           ; BSR set to: 0
   909                           ;C:\Program Files\Microchip\xc8\v2.36\pic\sources\c99\common\doprnt.c: 1400:     return 
      +                          nout;
   910  001B7E  C08A  F050         	movff	_nout,?_vfprintf
   911  001B82  C08B  F051         	movff	_nout+1,?_vfprintf+1
   912  001B86                     
   913                           ; BSR set to: 0
   914  001B86  0012               	return		;funcret
   915  001B88                     __end_of_vfprintf:
   916                           	callstack 0
   917                           
   918 ;; *************** function _vfpfcnvrt *****************
   919 ;; Defined at:
   920 ;;		line 692 in file "C:\Program Files\Microchip\xc8\v2.36\pic\sources\c99\common\doprnt.c"
   921 ;; Parameters:    Size  Location     Type
   922 ;;  fp              2   61[COMRAM] PTR struct _IO_FILE
   923 ;;		 -> NULL(0), 
   924 ;;  fmt             2   63[COMRAM] PTR PTR unsigned char 
   925 ;;		 -> vfprintf@cfmt(2), 
   926 ;;  ap              2   65[COMRAM] PTR PTR void 
   927 ;;		 -> printf@ap(2), 
   928 ;; Auto vars:     Size  Location     Type
   929 ;;  llu             8   71[COMRAM] unsigned long long 
   930 ;;  ll              8    0        long long 
   931 ;;  f               4    0        long long 
   932 ;;  vp              3    0        PTR void 
   933 ;;  ct              3    0        unsigned char [3]
   934 ;;  cp              3    0        PTR unsigned char 
   935 ;;  i               2    0        int 
   936 ;;  done            2    0        int 
   937 ;;  c               1    0        unsigned char 
   938 ;; Return value:  Size  Location     Type
   939 ;;                  2   61[COMRAM] int 
   940 ;; Registers used:
   941 ;;		wreg, fsr1l, fsr1h, fsr2l, fsr2h, status,2, status,0, tblptrl, tblptrh, tblptru, cstack
   942 ;; Tracked objects:
   943 ;;		On entry : 0/0
   944 ;;		On exit  : 0/0
   945 ;;		Unchanged: 0/0
   946 ;; Data sizes:     COMRAM   BANK0   BANK1   BANK2   BANK3   BANK4   BANK5   BANK6   BANK7   BANK8   BANK9  BANK10  BANK1
      +1  BANK12  BANK14
   947 ;;      Params:         6       0       0       0       0       0       0       0       0       0       0       0       
      +0       0       0
   948 ;;      Locals:         8       0       0       0       0       0       0       0       0       0       0       0       
      +0       0       0
   949 ;;      Temps:          4       0       0       0       0       0       0       0       0       0       0       0       
      +0       0       0
   950 ;;      Totals:        18       0       0       0       0       0       0       0       0       0       0       0       
      +0       0       0
   951 ;;Total ram usage:       18 bytes
   952 ;; Hardware stack levels used: 1
   953 ;; Hardware stack levels required when called: 6
   954 ;; This function calls:
   955 ;;		_fputc
   956 ;;		_utoa
   957 ;; This function is called by:
   958 ;;		_vfprintf
   959 ;; This function uses a non-reentrant model
   960 ;;
   961                           
   962                           	psect	text3
   963  00115C                     __ptext3:
   964                           	callstack 0
   965  00115C                     _vfpfcnvrt:
   966                           	callstack 22
   967  00115C                     
   968                           ;C:\Program Files\Microchip\xc8\v2.36\pic\sources\c99\common\doprnt.c: 692: static int v
      +                          fpfcnvrt(FILE *fp, char *fmt[], va_list ap);C:\Program Files\Microchip\xc8\v2.36\pic\sou
      +                          rces\c99\common\doprnt.c: 693: {;C:\Program Files\Microchip\xc8\v2.36\pic\sources\c99\co
      +                          mmon\doprnt.c: 694:     char c, *cp, ct[3];;C:\Program Files\Microchip\xc8\v2.36\pic\sou
      +                          rces\c99\common\doprnt.c: 695:     int done, i;;C:\Program Files\Microchip\xc8\v2.36\pic
      +                          \sources\c99\common\doprnt.c: 696:     long long ll;;C:\Program Files\Microchip\xc8\v2.3
      +                          6\pic\sources\c99\common\doprnt.c: 697:     unsigned long long llu;
   969  00115C  C040  FFD9         	movff	vfpfcnvrt@fmt,fsr2l
   970  001160  C041  FFDA         	movff	vfpfcnvrt@fmt+1,fsr2h
   971  001164  CFDE FFF6          	movff	postinc2,tblptrl
   972  001168  CFDD FFF7          	movff	postdec2,tblptrh
   973  00116C                     	if	0	;tblptru may be non-zero
   974  00116C                     	endif
   975  00116C                     	if	1	;Program memory is > 0xFFFF, there are 3 active tblptr bytes
   976  00116C  0E00               	movlw	low (__mediumconst shr (0+16))
   977  00116E  6EF8               	movwf	tblptru,c
   978  001170                     	endif
   979  001170  0008               	tblrd		*
   980  001172  50F5               	movf	tablat,w,c
   981  001174  0A25               	xorlw	37
   982  001176  A4D8               	btfss	status,2,c
   983  001178  EFC0  F008         	goto	u1301
   984  00117C  EFC2  F008         	goto	u1300
   985  001180                     u1301:
   986  001180  EF61  F009         	goto	l3159
   987  001184                     u1300:
   988  001184                     
   989                           ;C:\Program Files\Microchip\xc8\v2.36\pic\sources\c99\common\doprnt.c: 703:         ++*f
      +                          mt;
   990  001184  C040  FFD9         	movff	vfpfcnvrt@fmt,fsr2l
   991  001188  C041  FFDA         	movff	vfpfcnvrt@fmt+1,fsr2h
   992  00118C  2ADE               	incf	postinc2,f,c
   993  00118E  0E00               	movlw	0
   994  001190  22DD               	addwfc	postdec2,f,c
   995  001192                     
   996                           ;C:\Program Files\Microchip\xc8\v2.36\pic\sources\c99\common\doprnt.c: 705:         flag
      +                          s = width = 0;
   997  001192  0E00               	movlw	0
   998  001194  0100               	movlb	0	; () banked
   999  001196  6F8D               	movwf	(_width+1)& (0+255),b
  1000  001198  0E00               	movlw	0
  1001  00119A  6F8C               	movwf	_width& (0+255),b
  1002  00119C  C08C  F090         	movff	_width,_flags
  1003  0011A0  C08D  F091         	movff	_width+1,_flags+1
  1004  0011A4                     
  1005                           ; BSR set to: 0
  1006                           ;C:\Program Files\Microchip\xc8\v2.36\pic\sources\c99\common\doprnt.c: 706:         prec
      +                           = -1;
  1007  0011A4  698E               	setf	_prec& (0+255),b
  1008  0011A6  698F               	setf	(_prec+1)& (0+255),b
  1009  0011A8                     
  1010                           ; BSR set to: 0
  1011                           ;C:\Program Files\Microchip\xc8\v2.36\pic\sources\c99\common\doprnt.c: 1204:         if 
      +                          (*fmt[0] == 'u') {
  1012  0011A8  C040  FFD9         	movff	vfpfcnvrt@fmt,fsr2l
  1013  0011AC  C041  FFDA         	movff	vfpfcnvrt@fmt+1,fsr2h
  1014  0011B0  CFDE FFF6          	movff	postinc2,tblptrl
  1015  0011B4  CFDD FFF7          	movff	postdec2,tblptrh
  1016  0011B8                     	if	0	;tblptru may be non-zero
  1017  0011B8                     	endif
  1018  0011B8                     	if	1	;Program memory is > 0xFFFF, there are 3 active tblptr bytes
  1019  0011B8  0E00               	movlw	low (__mediumconst shr (0+16))
  1020  0011BA  6EF8               	movwf	tblptru,c
  1021  0011BC                     	endif
  1022  0011BC  0008               	tblrd		*
  1023  0011BE  50F5               	movf	tablat,w,c
  1024  0011C0  0A75               	xorlw	117
  1025  0011C2  A4D8               	btfss	status,2,c
  1026  0011C4  EFE6  F008         	goto	u1311
  1027  0011C8  EFE8  F008         	goto	u1310
  1028  0011CC                     u1311:
  1029  0011CC  EF29  F009         	goto	l3143
  1030  0011D0                     u1310:
  1031  0011D0                     
  1032                           ; BSR set to: 0
  1033                           ;C:\Program Files\Microchip\xc8\v2.36\pic\sources\c99\common\doprnt.c: 1206:            
      +                           ++*fmt;
  1034  0011D0  C040  FFD9         	movff	vfpfcnvrt@fmt,fsr2l
  1035  0011D4  C041  FFDA         	movff	vfpfcnvrt@fmt+1,fsr2h
  1036  0011D8  2ADE               	incf	postinc2,f,c
  1037  0011DA  0E00               	movlw	0
  1038  0011DC  22DD               	addwfc	postdec2,f,c
  1039                           
  1040                           ;C:\Program Files\Microchip\xc8\v2.36\pic\sources\c99\common\doprnt.c: 1207:            
      +                           llu = (unsigned long long)(*(unsigned int *)__va_arg(*(unsigned int **)ap, (unsigned in
      +                          t)0));
  1041  0011DE  C042  FFD9         	movff	vfpfcnvrt@ap,fsr2l
  1042  0011E2  C043  FFDA         	movff	vfpfcnvrt@ap+1,fsr2h
  1043  0011E6  CFDF F044          	movff	indf2,??_vfpfcnvrt
  1044  0011EA  0E02               	movlw	2
  1045  0011EC  26DE               	addwf	postinc2,f,c
  1046  0011EE  CFDF F045          	movff	indf2,??_vfpfcnvrt+1
  1047  0011F2  0E00               	movlw	0
  1048  0011F4  22DD               	addwfc	postdec2,f,c
  1049  0011F6  C044  FFD9         	movff	??_vfpfcnvrt,fsr2l
  1050  0011FA  C045  FFDA         	movff	??_vfpfcnvrt+1,fsr2h
  1051  0011FE  CFDE F046          	movff	postinc2,??_vfpfcnvrt+2
  1052  001202  CFDD F047          	movff	postdec2,??_vfpfcnvrt+3
  1053  001206  C046  F048         	movff	??_vfpfcnvrt+2,vfpfcnvrt@llu
  1054  00120A  C047  F049         	movff	??_vfpfcnvrt+3,vfpfcnvrt@llu+1
  1055  00120E  6A4A               	clrf	(vfpfcnvrt@llu+2)^0,c
  1056  001210  6A4B               	clrf	(vfpfcnvrt@llu+3)^0,c
  1057  001212  6A4C               	clrf	(vfpfcnvrt@llu+4)^0,c
  1058  001214  6A4D               	clrf	(vfpfcnvrt@llu+5)^0,c
  1059  001216  6A4E               	clrf	(vfpfcnvrt@llu+6)^0,c
  1060  001218  6A4F               	clrf	(vfpfcnvrt@llu+7)^0,c
  1061  00121A                     
  1062                           ; BSR set to: 0
  1063                           ;C:\Program Files\Microchip\xc8\v2.36\pic\sources\c99\common\doprnt.c: 1209:            
      +                           return utoa(fp, llu);
  1064  00121A  C03E  F01E         	movff	vfpfcnvrt@fp,utoa@fp
  1065  00121E  C03F  F01F         	movff	vfpfcnvrt@fp+1,utoa@fp+1
  1066  001222  C048  F020         	movff	vfpfcnvrt@llu,utoa@d
  1067  001226  C049  F021         	movff	vfpfcnvrt@llu+1,utoa@d+1
  1068  00122A  C04A  F022         	movff	vfpfcnvrt@llu+2,utoa@d+2
  1069  00122E  C04B  F023         	movff	vfpfcnvrt@llu+3,utoa@d+3
  1070  001232  C04C  F024         	movff	vfpfcnvrt@llu+4,utoa@d+4
  1071  001236  C04D  F025         	movff	vfpfcnvrt@llu+5,utoa@d+5
  1072  00123A  C04E  F026         	movff	vfpfcnvrt@llu+6,utoa@d+6
  1073  00123E  C04F  F027         	movff	vfpfcnvrt@llu+7,utoa@d+7
  1074  001242  ECAD  F007         	call	_utoa	;wreg free
  1075  001246  C01E  F03E         	movff	?_utoa,?_vfpfcnvrt
  1076  00124A  C01F  F03F         	movff	?_utoa+1,?_vfpfcnvrt+1
  1077  00124E  EF7E  F009         	goto	l1504
  1078  001252                     l3143:
  1079                           
  1080                           ; BSR set to: 0
  1081                           ;C:\Program Files\Microchip\xc8\v2.36\pic\sources\c99\common\doprnt.c: 1372:         if 
      +                          ((*fmt)[0] == '%') {
  1082  001252  C040  FFD9         	movff	vfpfcnvrt@fmt,fsr2l
  1083  001256  C041  FFDA         	movff	vfpfcnvrt@fmt+1,fsr2h
  1084  00125A  CFDE FFF6          	movff	postinc2,tblptrl
  1085  00125E  CFDD FFF7          	movff	postdec2,tblptrh
  1086  001262                     	if	0	;tblptru may be non-zero
  1087  001262                     	endif
  1088  001262                     	if	1	;Program memory is > 0xFFFF, there are 3 active tblptr bytes
  1089  001262  0E00               	movlw	low (__mediumconst shr (0+16))
  1090  001264  6EF8               	movwf	tblptru,c
  1091  001266                     	endif
  1092  001266  0008               	tblrd		*
  1093  001268  50F5               	movf	tablat,w,c
  1094  00126A  0A25               	xorlw	37
  1095  00126C  A4D8               	btfss	status,2,c
  1096  00126E  EF3B  F009         	goto	u1321
  1097  001272  EF3D  F009         	goto	u1320
  1098  001276                     u1321:
  1099  001276  EF54  F009         	goto	l3153
  1100  00127A                     u1320:
  1101  00127A                     
  1102                           ; BSR set to: 0
  1103                           ;C:\Program Files\Microchip\xc8\v2.36\pic\sources\c99\common\doprnt.c: 1373:            
      +                           ++*fmt;
  1104  00127A  C040  FFD9         	movff	vfpfcnvrt@fmt,fsr2l
  1105  00127E  C041  FFDA         	movff	vfpfcnvrt@fmt+1,fsr2h
  1106  001282  2ADE               	incf	postinc2,f,c
  1107  001284  0E00               	movlw	0
  1108  001286  22DD               	addwfc	postdec2,f,c
  1109  001288                     
  1110                           ; BSR set to: 0
  1111                           ;C:\Program Files\Microchip\xc8\v2.36\pic\sources\c99\common\doprnt.c: 1374:            
      +                           fputc((int)'%', fp);
  1112  001288  0E00               	movlw	0
  1113  00128A  6E04               	movwf	(fputc@c+1)^0,c
  1114  00128C  0E25               	movlw	37
  1115  00128E  6E03               	movwf	fputc@c^0,c
  1116  001290  C03E  F005         	movff	vfpfcnvrt@fp,fputc@fp
  1117  001294  C03F  F006         	movff	vfpfcnvrt@fp+1,fputc@fp+1
  1118  001298  ECCB  F00B         	call	_fputc	;wreg free
  1119  00129C                     l3149:
  1120                           
  1121                           ;C:\Program Files\Microchip\xc8\v2.36\pic\sources\c99\common\doprnt.c: 1375:            
      +                           return 1;
  1122  00129C  0E00               	movlw	0
  1123  00129E  6E3F               	movwf	(?_vfpfcnvrt+1)^0,c
  1124  0012A0  0E01               	movlw	1
  1125  0012A2  6E3E               	movwf	?_vfpfcnvrt^0,c
  1126  0012A4  EF7E  F009         	goto	l1504
  1127  0012A8                     l3153:
  1128                           
  1129                           ; BSR set to: 0
  1130                           ;C:\Program Files\Microchip\xc8\v2.36\pic\sources\c99\common\doprnt.c: 1379:         ++*
      +                          fmt;
  1131  0012A8  C040  FFD9         	movff	vfpfcnvrt@fmt,fsr2l
  1132  0012AC  C041  FFDA         	movff	vfpfcnvrt@fmt+1,fsr2h
  1133  0012B0  2ADE               	incf	postinc2,f,c
  1134  0012B2  0E00               	movlw	0
  1135  0012B4  22DD               	addwfc	postdec2,f,c
  1136  0012B6                     
  1137                           ; BSR set to: 0
  1138                           ;C:\Program Files\Microchip\xc8\v2.36\pic\sources\c99\common\doprnt.c: 1380:         ret
      +                          urn 0;
  1139  0012B6  0E00               	movlw	0
  1140  0012B8  6E3F               	movwf	(?_vfpfcnvrt+1)^0,c
  1141  0012BA  0E00               	movlw	0
  1142  0012BC  6E3E               	movwf	?_vfpfcnvrt^0,c
  1143  0012BE  EF7E  F009         	goto	l1504
  1144  0012C2                     l3159:
  1145                           
  1146                           ;C:\Program Files\Microchip\xc8\v2.36\pic\sources\c99\common\doprnt.c: 1384:     fputc((
      +                          int)(*fmt)[0], fp);
  1147  0012C2  C040  FFD9         	movff	vfpfcnvrt@fmt,fsr2l
  1148  0012C6  C041  FFDA         	movff	vfpfcnvrt@fmt+1,fsr2h
  1149  0012CA  CFDE FFF6          	movff	postinc2,tblptrl
  1150  0012CE  CFDD FFF7          	movff	postdec2,tblptrh
  1151  0012D2                     	if	0	;tblptru may be non-zero
  1152  0012D2                     	endif
  1153  0012D2                     	if	1	;Program memory is > 0xFFFF, there are 3 active tblptr bytes
  1154  0012D2  0E00               	movlw	low (__mediumconst shr (0+16))
  1155  0012D4  6EF8               	movwf	tblptru,c
  1156  0012D6                     	endif
  1157  0012D6  0008               	tblrd		*
  1158  0012D8  50F5               	movf	tablat,w,c
  1159  0012DA  6E03               	movwf	fputc@c^0,c
  1160  0012DC  6A04               	clrf	(fputc@c+1)^0,c
  1161  0012DE  C03E  F005         	movff	vfpfcnvrt@fp,fputc@fp
  1162  0012E2  C03F  F006         	movff	vfpfcnvrt@fp+1,fputc@fp+1
  1163  0012E6  ECCB  F00B         	call	_fputc	;wreg free
  1164  0012EA                     
  1165                           ;C:\Program Files\Microchip\xc8\v2.36\pic\sources\c99\common\doprnt.c: 1385:     ++*fmt;
  1166  0012EA  C040  FFD9         	movff	vfpfcnvrt@fmt,fsr2l
  1167  0012EE  C041  FFDA         	movff	vfpfcnvrt@fmt+1,fsr2h
  1168  0012F2  2ADE               	incf	postinc2,f,c
  1169  0012F4  0E00               	movlw	0
  1170  0012F6  22DD               	addwfc	postdec2,f,c
  1171  0012F8  EF4E  F009         	goto	l3149
  1172  0012FC                     l1504:
  1173  0012FC  0012               	return		;funcret
  1174  0012FE                     __end_of_vfpfcnvrt:
  1175                           	callstack 0
  1176                           
  1177 ;; *************** function _utoa *****************
  1178 ;; Defined at:
  1179 ;;		line 615 in file "C:\Program Files\Microchip\xc8\v2.36\pic\sources\c99\common\doprnt.c"
  1180 ;; Parameters:    Size  Location     Type
  1181 ;;  fp              2   29[COMRAM] PTR struct _IO_FILE
  1182 ;;		 -> NULL(0), 
  1183 ;;  d               8   31[COMRAM] unsigned long long 
  1184 ;; Auto vars:     Size  Location     Type
  1185 ;;  n               8   51[COMRAM] unsigned long long 
  1186 ;;  i               2   59[COMRAM] int 
  1187 ;;  w               2   49[COMRAM] int 
  1188 ;;  p               2   47[COMRAM] int 
  1189 ;; Return value:  Size  Location     Type
  1190 ;;                  2   29[COMRAM] int 
  1191 ;; Registers used:
  1192 ;;		wreg, fsr1l, fsr1h, fsr2l, fsr2h, status,2, status,0, cstack
  1193 ;; Tracked objects:
  1194 ;;		On entry : 0/0
  1195 ;;		On exit  : 0/0
  1196 ;;		Unchanged: 0/0
  1197 ;; Data sizes:     COMRAM   BANK0   BANK1   BANK2   BANK3   BANK4   BANK5   BANK6   BANK7   BANK8   BANK9  BANK10  BANK1
      +1  BANK12  BANK14
  1198 ;;      Params:        10       0       0       0       0       0       0       0       0       0       0       0       
      +0       0       0
  1199 ;;      Locals:        14       0       0       0       0       0       0       0       0       0       0       0       
      +0       0       0
  1200 ;;      Temps:          8       0       0       0       0       0       0       0       0       0       0       0       
      +0       0       0
  1201 ;;      Totals:        32       0       0       0       0       0       0       0       0       0       0       0       
      +0       0       0
  1202 ;;Total ram usage:       32 bytes
  1203 ;; Hardware stack levels used: 1
  1204 ;; Hardware stack levels required when called: 5
  1205 ;; This function calls:
  1206 ;;		___lodiv
  1207 ;;		___lomod
  1208 ;;		_pad
  1209 ;; This function is called by:
  1210 ;;		_vfpfcnvrt
  1211 ;; This function uses a non-reentrant model
  1212 ;;
  1213                           
  1214                           	psect	text4
  1215  000F5A                     __ptext4:
  1216                           	callstack 0
  1217  000F5A                     _utoa:
  1218                           	callstack 22
  1219  000F5A                     
  1220                           ;C:\Program Files\Microchip\xc8\v2.36\pic\sources\c99\common\doprnt.c: 615: static int u
      +                          toa(FILE *fp, unsigned long long d);C:\Program Files\Microchip\xc8\v2.36\pic\sources\c99
      +                          \common\doprnt.c: 616: {;C:\Program Files\Microchip\xc8\v2.36\pic\sources\c99\common\dop
      +                          rnt.c: 617:     int i, p, w;;C:\Program Files\Microchip\xc8\v2.36\pic\sources\c99\common
      +                          \doprnt.c: 618:     unsigned long long n;;C:\Program Files\Microchip\xc8\v2.36\pic\sourc
      +                          es\c99\common\doprnt.c: 621:     if (!(prec < 0)) {
  1221  000F5A  0100               	movlb	0	; () banked
  1222  000F5C  BF8F               	btfsc	(_prec+1)& (0+255),7,b
  1223  000F5E  EFB3  F007         	goto	u1201
  1224  000F62  EFB5  F007         	goto	u1200
  1225  000F66                     u1201:
  1226  000F66  EFB6  F007         	goto	l3055
  1227  000F6A                     u1200:
  1228  000F6A                     
  1229                           ; BSR set to: 0
  1230                           ;C:\Program Files\Microchip\xc8\v2.36\pic\sources\c99\common\doprnt.c: 622:         flag
      +                          s &= ~(1 << 1);
  1231  000F6A  9390               	bcf	_flags& (0+255),1,b
  1232  000F6C                     l3055:
  1233                           
  1234                           ; BSR set to: 0
  1235                           ;C:\Program Files\Microchip\xc8\v2.36\pic\sources\c99\common\doprnt.c: 624:     p = (0 <
      +                           prec) ? prec : 1;
  1236  000F6C  BF8F               	btfsc	(_prec+1)& (0+255),7,b
  1237  000F6E  EFC3  F007         	goto	u1210
  1238  000F72  518F               	movf	(_prec+1)& (0+255),w,b
  1239  000F74  E106               	bnz	u1211
  1240  000F76  058E               	decf	_prec& (0+255),w,b
  1241  000F78  B0D8               	btfsc	status,0,c
  1242  000F7A  EFC1  F007         	goto	u1211
  1243  000F7E  EFC3  F007         	goto	u1210
  1244  000F82                     u1211:
  1245  000F82  EFC9  F007         	goto	l1489
  1246  000F86                     u1210:
  1247  000F86                     
  1248                           ; BSR set to: 0
  1249  000F86  0E00               	movlw	0
  1250  000F88  6E31               	movwf	(utoa@p+1)^0,c
  1251  000F8A  0E01               	movlw	1
  1252  000F8C  6E30               	movwf	utoa@p^0,c
  1253  000F8E  EFCD  F007         	goto	l1491
  1254  000F92                     l1489:
  1255                           
  1256                           ; BSR set to: 0
  1257  000F92  C08E  F030         	movff	_prec,utoa@p
  1258  000F96  C08F  F031         	movff	_prec+1,utoa@p+1
  1259  000F9A                     l1491:
  1260                           
  1261                           ; BSR set to: 0
  1262                           ;C:\Program Files\Microchip\xc8\v2.36\pic\sources\c99\common\doprnt.c: 625:     w = widt
      +                          h;
  1263  000F9A  C08C  F032         	movff	_width,utoa@w
  1264  000F9E  C08D  F033         	movff	_width+1,utoa@w+1
  1265                           
  1266                           ;C:\Program Files\Microchip\xc8\v2.36\pic\sources\c99\common\doprnt.c: 628:     n = d;
  1267  000FA2  C020  F034         	movff	utoa@d,utoa@n
  1268  000FA6  C021  F035         	movff	utoa@d+1,utoa@n+1
  1269  000FAA  C022  F036         	movff	utoa@d+2,utoa@n+2
  1270  000FAE  C023  F037         	movff	utoa@d+3,utoa@n+3
  1271  000FB2  C024  F038         	movff	utoa@d+4,utoa@n+4
  1272  000FB6  C025  F039         	movff	utoa@d+5,utoa@n+5
  1273  000FBA  C026  F03A         	movff	utoa@d+6,utoa@n+6
  1274  000FBE  C027  F03B         	movff	utoa@d+7,utoa@n+7
  1275  000FC2                     
  1276                           ; BSR set to: 0
  1277                           ;C:\Program Files\Microchip\xc8\v2.36\pic\sources\c99\common\doprnt.c: 629:     i = size
      +                          of(dbuf) - 1;
  1278  000FC2  0E00               	movlw	0
  1279  000FC4  6E3D               	movwf	(utoa@i+1)^0,c
  1280  000FC6  0E1F               	movlw	31
  1281  000FC8  6E3C               	movwf	utoa@i^0,c
  1282  000FCA                     
  1283                           ; BSR set to: 0
  1284                           ;C:\Program Files\Microchip\xc8\v2.36\pic\sources\c99\common\doprnt.c: 630:     dbuf[i] 
      +                          = '\0';
  1285  000FCA  0E00               	movlw	0
  1286  000FCC  6FB2               	movwf	(_dbuf+31)& (0+255),b
  1287                           
  1288                           ;C:\Program Files\Microchip\xc8\v2.36\pic\sources\c99\common\doprnt.c: 631:     while (i
      +                           && (n || (0 < p) || ((0 < w) && (flags & (1 << 1))))) {
  1289  000FCE  EF5F  F008         	goto	l3073
  1290  000FD2                     l3063:
  1291                           
  1292                           ;C:\Program Files\Microchip\xc8\v2.36\pic\sources\c99\common\doprnt.c: 632:         --i;
  1293  000FD2  063C               	decf	utoa@i^0,f,c
  1294  000FD4  A0D8               	btfss	status,0,c
  1295  000FD6  063D               	decf	(utoa@i+1)^0,f,c
  1296  000FD8                     
  1297                           ;C:\Program Files\Microchip\xc8\v2.36\pic\sources\c99\common\doprnt.c: 633:         dbuf
      +                          [i] = '0' + (n % 10);
  1298  000FD8  0E93               	movlw	low _dbuf
  1299  000FDA  243C               	addwf	utoa@i^0,w,c
  1300  000FDC  6ED9               	movwf	fsr2l,c
  1301  000FDE  0E00               	movlw	high _dbuf
  1302  000FE0  203D               	addwfc	(utoa@i+1)^0,w,c
  1303  000FE2  6EDA               	movwf	fsr2h,c
  1304  000FE4  C034  F001         	movff	utoa@n,___lomod@dividend
  1305  000FE8  C035  F002         	movff	utoa@n+1,___lomod@dividend+1
  1306  000FEC  C036  F003         	movff	utoa@n+2,___lomod@dividend+2
  1307  000FF0  C037  F004         	movff	utoa@n+3,___lomod@dividend+3
  1308  000FF4  C038  F005         	movff	utoa@n+4,___lomod@dividend+4
  1309  000FF8  C039  F006         	movff	utoa@n+5,___lomod@dividend+5
  1310  000FFC  C03A  F007         	movff	utoa@n+6,___lomod@dividend+6
  1311  001000  C03B  F008         	movff	utoa@n+7,___lomod@dividend+7
  1312  001004  0E0A               	movlw	10
  1313  001006  6E09               	movwf	___lomod@divisor^0,c
  1314  001008  0E00               	movlw	0
  1315  00100A  6E0A               	movwf	(___lomod@divisor+1)^0,c
  1316  00100C  0E00               	movlw	0
  1317  00100E  6E0B               	movwf	(___lomod@divisor+2)^0,c
  1318  001010  0E00               	movlw	0
  1319  001012  6E0C               	movwf	(___lomod@divisor+3)^0,c
  1320  001014  0E00               	movlw	0
  1321  001016  6E0D               	movwf	(___lomod@divisor+4)^0,c
  1322  001018  0E00               	movlw	0
  1323  00101A  6E0E               	movwf	(___lomod@divisor+5)^0,c
  1324  00101C  0E00               	movlw	0
  1325  00101E  6E0F               	movwf	(___lomod@divisor+6)^0,c
  1326  001020  0E00               	movlw	0
  1327  001022  6E10               	movwf	(___lomod@divisor+7)^0,c
  1328  001024  ECF7  F009         	call	___lomod	;wreg free
  1329  001028  C001  F028         	movff	?___lomod,??_utoa
  1330  00102C  C002  F029         	movff	?___lomod+1,??_utoa+1
  1331  001030  C003  F02A         	movff	?___lomod+2,??_utoa+2
  1332  001034  C004  F02B         	movff	?___lomod+3,??_utoa+3
  1333  001038  C005  F02C         	movff	?___lomod+4,??_utoa+4
  1334  00103C  C006  F02D         	movff	?___lomod+5,??_utoa+5
  1335  001040  C007  F02E         	movff	?___lomod+6,??_utoa+6
  1336  001044  C008  F02F         	movff	?___lomod+7,??_utoa+7
  1337  001048  5028               	movf	??_utoa^0,w,c
  1338  00104A  0F30               	addlw	48
  1339  00104C  6EDF               	movwf	indf2,c
  1340  00104E                     
  1341                           ;C:\Program Files\Microchip\xc8\v2.36\pic\sources\c99\common\doprnt.c: 634:         --p;
  1342  00104E  0630               	decf	utoa@p^0,f,c
  1343  001050  A0D8               	btfss	status,0,c
  1344  001052  0631               	decf	(utoa@p+1)^0,f,c
  1345  001054                     
  1346                           ;C:\Program Files\Microchip\xc8\v2.36\pic\sources\c99\common\doprnt.c: 635:         --w;
  1347  001054  0632               	decf	utoa@w^0,f,c
  1348  001056  A0D8               	btfss	status,0,c
  1349  001058  0633               	decf	(utoa@w+1)^0,f,c
  1350  00105A                     
  1351                           ;C:\Program Files\Microchip\xc8\v2.36\pic\sources\c99\common\doprnt.c: 636:         n = 
      +                          n / 10;
  1352  00105A  C034  F001         	movff	utoa@n,___lodiv@dividend
  1353  00105E  C035  F002         	movff	utoa@n+1,___lodiv@dividend+1
  1354  001062  C036  F003         	movff	utoa@n+2,___lodiv@dividend+2
  1355  001066  C037  F004         	movff	utoa@n+3,___lodiv@dividend+3
  1356  00106A  C038  F005         	movff	utoa@n+4,___lodiv@dividend+4
  1357  00106E  C039  F006         	movff	utoa@n+5,___lodiv@dividend+5
  1358  001072  C03A  F007         	movff	utoa@n+6,___lodiv@dividend+6
  1359  001076  C03B  F008         	movff	utoa@n+7,___lodiv@dividend+7
  1360  00107A  0E0A               	movlw	10
  1361  00107C  6E09               	movwf	___lodiv@divisor^0,c
  1362  00107E  0E00               	movlw	0
  1363  001080  6E0A               	movwf	(___lodiv@divisor+1)^0,c
  1364  001082  0E00               	movlw	0
  1365  001084  6E0B               	movwf	(___lodiv@divisor+2)^0,c
  1366  001086  0E00               	movlw	0
  1367  001088  6E0C               	movwf	(___lodiv@divisor+3)^0,c
  1368  00108A  0E00               	movlw	0
  1369  00108C  6E0D               	movwf	(___lodiv@divisor+4)^0,c
  1370  00108E  0E00               	movlw	0
  1371  001090  6E0E               	movwf	(___lodiv@divisor+5)^0,c
  1372  001092  0E00               	movlw	0
  1373  001094  6E0F               	movwf	(___lodiv@divisor+6)^0,c
  1374  001096  0E00               	movlw	0
  1375  001098  6E10               	movwf	(___lodiv@divisor+7)^0,c
  1376  00109A  EC7F  F009         	call	___lodiv	;wreg free
  1377  00109E  C001  F034         	movff	?___lodiv,utoa@n
  1378  0010A2  C002  F035         	movff	?___lodiv+1,utoa@n+1
  1379  0010A6  C003  F036         	movff	?___lodiv+2,utoa@n+2
  1380  0010AA  C004  F037         	movff	?___lodiv+3,utoa@n+3
  1381  0010AE  C005  F038         	movff	?___lodiv+4,utoa@n+4
  1382  0010B2  C006  F039         	movff	?___lodiv+5,utoa@n+5
  1383  0010B6  C007  F03A         	movff	?___lodiv+6,utoa@n+6
  1384  0010BA  C008  F03B         	movff	?___lodiv+7,utoa@n+7
  1385  0010BE                     l3073:
  1386                           
  1387                           ;C:\Program Files\Microchip\xc8\v2.36\pic\sources\c99\common\doprnt.c: 631:     while (i
      +                           && (n || (0 < p) || ((0 < w) && (flags & (1 << 1))))) {
  1388  0010BE  503C               	movf	utoa@i^0,w,c
  1389  0010C0  103D               	iorwf	(utoa@i+1)^0,w,c
  1390  0010C2  B4D8               	btfsc	status,2,c
  1391  0010C4  EF66  F008         	goto	u1221
  1392  0010C8  EF68  F008         	goto	u1220
  1393  0010CC                     u1221:
  1394  0010CC  EF99  F008         	goto	l3083
  1395  0010D0                     u1220:
  1396  0010D0  5034               	movf	utoa@n^0,w,c
  1397  0010D2  1035               	iorwf	(utoa@n+1)^0,w,c
  1398  0010D4  1036               	iorwf	(utoa@n+2)^0,w,c
  1399  0010D6  1037               	iorwf	(utoa@n+3)^0,w,c
  1400  0010D8  1038               	iorwf	(utoa@n+4)^0,w,c
  1401  0010DA  1039               	iorwf	(utoa@n+5)^0,w,c
  1402  0010DC  103A               	iorwf	(utoa@n+6)^0,w,c
  1403  0010DE  103B               	iorwf	(utoa@n+7)^0,w,c
  1404  0010E0  A4D8               	btfss	status,2,c
  1405  0010E2  EF75  F008         	goto	u1231
  1406  0010E6  EF77  F008         	goto	u1230
  1407  0010EA                     u1231:
  1408  0010EA  EFE9  F007         	goto	l3063
  1409  0010EE                     u1230:
  1410  0010EE  BE31               	btfsc	(utoa@p+1)^0,7,c
  1411  0010F0  EF84  F008         	goto	u1240
  1412  0010F4  5031               	movf	(utoa@p+1)^0,w,c
  1413  0010F6  E106               	bnz	u1241
  1414  0010F8  0430               	decf	utoa@p^0,w,c
  1415  0010FA  B0D8               	btfsc	status,0,c
  1416  0010FC  EF82  F008         	goto	u1241
  1417  001100  EF84  F008         	goto	u1240
  1418  001104                     u1241:
  1419  001104  EFE9  F007         	goto	l3063
  1420  001108                     u1240:
  1421  001108  BE33               	btfsc	(utoa@w+1)^0,7,c
  1422  00110A  EF8F  F008         	goto	u1251
  1423  00110E  5033               	movf	(utoa@w+1)^0,w,c
  1424  001110  E108               	bnz	u1250
  1425  001112  0432               	decf	utoa@w^0,w,c
  1426  001114  A0D8               	btfss	status,0,c
  1427  001116  EF8F  F008         	goto	u1251
  1428  00111A  EF91  F008         	goto	u1250
  1429  00111E                     u1251:
  1430  00111E  EF99  F008         	goto	l3083
  1431  001122                     u1250:
  1432  001122  0100               	movlb	0	; () banked
  1433  001124  B390               	btfsc	_flags& (0+255),1,b
  1434  001126  EF97  F008         	goto	u1261
  1435  00112A  EF99  F008         	goto	u1260
  1436  00112E                     u1261:
  1437  00112E  EFE9  F007         	goto	l3063
  1438  001132                     u1260:
  1439  001132                     l3083:
  1440                           
  1441                           ;C:\Program Files\Microchip\xc8\v2.36\pic\sources\c99\common\doprnt.c: 640:     return p
      +                          ad(fp, &dbuf[i], w);
  1442  001132  C01E  F013         	movff	utoa@fp,pad@fp
  1443  001136  C01F  F014         	movff	utoa@fp+1,pad@fp+1
  1444  00113A  0E93               	movlw	low _dbuf
  1445  00113C  243C               	addwf	utoa@i^0,w,c
  1446  00113E  6E15               	movwf	pad@buf^0,c
  1447  001140  0E00               	movlw	high _dbuf
  1448  001142  203D               	addwfc	(utoa@i+1)^0,w,c
  1449  001144  6E16               	movwf	(pad@buf+1)^0,c
  1450  001146  C032  F017         	movff	utoa@w,pad@p
  1451  00114A  C033  F018         	movff	utoa@w+1,pad@p+1
  1452  00114E  ECC3  F00A         	call	_pad	;wreg free
  1453  001152  C013  F01E         	movff	?_pad,?_utoa
  1454  001156  C014  F01F         	movff	?_pad+1,?_utoa+1
  1455  00115A  0012               	return		;funcret
  1456  00115C                     __end_of_utoa:
  1457                           	callstack 0
  1458                           
  1459 ;; *************** function _pad *****************
  1460 ;; Defined at:
  1461 ;;		line 72 in file "C:\Program Files\Microchip\xc8\v2.36\pic\sources\c99\common\doprnt.c"
  1462 ;; Parameters:    Size  Location     Type
  1463 ;;  fp              2   18[COMRAM] PTR struct _IO_FILE
  1464 ;;		 -> NULL(0), 
  1465 ;;  buf             2   20[COMRAM] PTR unsigned char 
  1466 ;;		 -> dbuf(32), 
  1467 ;;  p               2   22[COMRAM] int 
  1468 ;; Auto vars:     Size  Location     Type
  1469 ;;  w               2   27[COMRAM] int 
  1470 ;;  i               2   25[COMRAM] int 
  1471 ;; Return value:  Size  Location     Type
  1472 ;;                  2   18[COMRAM] int 
  1473 ;; Registers used:
  1474 ;;		wreg, fsr1l, fsr1h, fsr2l, fsr2h, status,2, status,0, cstack
  1475 ;; Tracked objects:
  1476 ;;		On entry : 0/0
  1477 ;;		On exit  : 0/0
  1478 ;;		Unchanged: 0/0
  1479 ;; Data sizes:     COMRAM   BANK0   BANK1   BANK2   BANK3   BANK4   BANK5   BANK6   BANK7   BANK8   BANK9  BANK10  BANK1
      +1  BANK12  BANK14
  1480 ;;      Params:         6       0       0       0       0       0       0       0       0       0       0       0       
      +0       0       0
  1481 ;;      Locals:         4       0       0       0       0       0       0       0       0       0       0       0       
      +0       0       0
  1482 ;;      Temps:          1       0       0       0       0       0       0       0       0       0       0       0       
      +0       0       0
  1483 ;;      Totals:        11       0       0       0       0       0       0       0       0       0       0       0       
      +0       0       0
  1484 ;;Total ram usage:       11 bytes
  1485 ;; Hardware stack levels used: 1
  1486 ;; Hardware stack levels required when called: 4
  1487 ;; This function calls:
  1488 ;;		_fputc
  1489 ;;		_fputs
  1490 ;;		_strlen
  1491 ;; This function is called by:
  1492 ;;		_utoa
  1493 ;; This function uses a non-reentrant model
  1494 ;;
  1495                           
  1496                           	psect	text5
  1497  001586                     __ptext5:
  1498                           	callstack 0
  1499  001586                     _pad:
  1500                           	callstack 22
  1501  001586                     
  1502                           ;C:\Program Files\Microchip\xc8\v2.36\pic\sources\c99\common\doprnt.c: 72: static int pa
      +                          d(FILE *fp, char *buf, int p);C:\Program Files\Microchip\xc8\v2.36\pic\sources\c99\commo
      +                          n\doprnt.c: 73: {;C:\Program Files\Microchip\xc8\v2.36\pic\sources\c99\common\doprnt.c: 
      +                          74:     int i, w;;C:\Program Files\Microchip\xc8\v2.36\pic\sources\c99\common\doprnt.c: 
      +                          77:     if (flags & (1 << 0)) {
  1503  001586  0100               	movlb	0	; () banked
  1504  001588  A190               	btfss	_flags& (0+255),0,b
  1505  00158A  EFC9  F00A         	goto	u1151
  1506  00158E  EFCB  F00A         	goto	u1150
  1507  001592                     u1151:
  1508  001592  EFD5  F00A         	goto	l3023
  1509  001596                     u1150:
  1510  001596                     
  1511                           ; BSR set to: 0
  1512                           ;C:\Program Files\Microchip\xc8\v2.36\pic\sources\c99\common\doprnt.c: 78:         fputs
      +                          ((const char *)buf, fp);
  1513  001596  C015  F00C         	movff	pad@buf,fputs@s
  1514  00159A  C016  F00D         	movff	pad@buf+1,fputs@s+1
  1515  00159E  C013  F00E         	movff	pad@fp,fputs@fp
  1516  0015A2  C014  F00F         	movff	pad@fp+1,fputs@fp+1
  1517  0015A6  EC14  F00E         	call	_fputs	;wreg free
  1518  0015AA                     l3023:
  1519                           
  1520                           ;C:\Program Files\Microchip\xc8\v2.36\pic\sources\c99\common\doprnt.c: 82:     w = (p < 
      +                          0) ? 0 : p;
  1521  0015AA  BE18               	btfsc	(pad@p+1)^0,7,c
  1522  0015AC  EFDA  F00A         	goto	u1161
  1523  0015B0  EFDC  F00A         	goto	u1160
  1524  0015B4                     u1161:
  1525  0015B4  EFE2  F00A         	goto	l3027
  1526  0015B8                     u1160:
  1527  0015B8  C017  F01C         	movff	pad@p,pad@w
  1528  0015BC  C018  F01D         	movff	pad@p+1,pad@w+1
  1529  0015C0  EFE6  F00A         	goto	l1479
  1530  0015C4                     l3027:
  1531  0015C4  0E00               	movlw	0
  1532  0015C6  6E1D               	movwf	(pad@w+1)^0,c
  1533  0015C8  0E00               	movlw	0
  1534  0015CA  6E1C               	movwf	pad@w^0,c
  1535  0015CC                     l1479:
  1536                           
  1537                           ;C:\Program Files\Microchip\xc8\v2.36\pic\sources\c99\common\doprnt.c: 83:     i = 0;
  1538  0015CC  0E00               	movlw	0
  1539  0015CE  6E1B               	movwf	(pad@i+1)^0,c
  1540  0015D0  0E00               	movlw	0
  1541  0015D2  6E1A               	movwf	pad@i^0,c
  1542                           
  1543                           ;C:\Program Files\Microchip\xc8\v2.36\pic\sources\c99\common\doprnt.c: 84:     while (i 
      +                          < w) {
  1544  0015D4  EFF8  F00A         	goto	l3033
  1545  0015D8                     l3029:
  1546                           
  1547                           ;C:\Program Files\Microchip\xc8\v2.36\pic\sources\c99\common\doprnt.c: 85:         fputc
      +                          (' ', fp);
  1548  0015D8  0E00               	movlw	0
  1549  0015DA  6E04               	movwf	(fputc@c+1)^0,c
  1550  0015DC  0E20               	movlw	32
  1551  0015DE  6E03               	movwf	fputc@c^0,c
  1552  0015E0  C013  F005         	movff	pad@fp,fputc@fp
  1553  0015E4  C014  F006         	movff	pad@fp+1,fputc@fp+1
  1554  0015E8  ECCB  F00B         	call	_fputc	;wreg free
  1555  0015EC                     
  1556                           ;C:\Program Files\Microchip\xc8\v2.36\pic\sources\c99\common\doprnt.c: 86:         ++i;
  1557  0015EC  4A1A               	infsnz	pad@i^0,f,c
  1558  0015EE  2A1B               	incf	(pad@i+1)^0,f,c
  1559  0015F0                     l3033:
  1560                           
  1561                           ;C:\Program Files\Microchip\xc8\v2.36\pic\sources\c99\common\doprnt.c: 84:     while (i 
      +                          < w) {
  1562  0015F0  501C               	movf	pad@w^0,w,c
  1563  0015F2  5C1A               	subwf	pad@i^0,w,c
  1564  0015F4  501B               	movf	(pad@i+1)^0,w,c
  1565  0015F6  0A80               	xorlw	128
  1566  0015F8  6E19               	movwf	??_pad^0,c
  1567  0015FA  501D               	movf	(pad@w+1)^0,w,c
  1568  0015FC  0A80               	xorlw	128
  1569  0015FE  5819               	subwfb	??_pad^0,w,c
  1570  001600  A0D8               	btfss	status,0,c
  1571  001602  EF05  F00B         	goto	u1171
  1572  001606  EF07  F00B         	goto	u1170
  1573  00160A                     u1171:
  1574  00160A  EFEC  F00A         	goto	l3029
  1575  00160E                     u1170:
  1576  00160E                     
  1577                           ;C:\Program Files\Microchip\xc8\v2.36\pic\sources\c99\common\doprnt.c: 90:     if (!(fla
      +                          gs & (1 << 0))) {
  1578  00160E  0100               	movlb	0	; () banked
  1579  001610  B190               	btfsc	_flags& (0+255),0,b
  1580  001612  EF0D  F00B         	goto	u1181
  1581  001616  EF0F  F00B         	goto	u1180
  1582  00161A                     u1181:
  1583  00161A  EF19  F00B         	goto	l3037
  1584  00161E                     u1180:
  1585  00161E                     
  1586                           ; BSR set to: 0
  1587                           ;C:\Program Files\Microchip\xc8\v2.36\pic\sources\c99\common\doprnt.c: 91:         fputs
      +                          ((const char *)buf, fp);
  1588  00161E  C015  F00C         	movff	pad@buf,fputs@s
  1589  001622  C016  F00D         	movff	pad@buf+1,fputs@s+1
  1590  001626  C013  F00E         	movff	pad@fp,fputs@fp
  1591  00162A  C014  F00F         	movff	pad@fp+1,fputs@fp+1
  1592  00162E  EC14  F00E         	call	_fputs	;wreg free
  1593  001632                     l3037:
  1594                           
  1595                           ;C:\Program Files\Microchip\xc8\v2.36\pic\sources\c99\common\doprnt.c: 94:     return (i
      +                          nt)(strlen(buf) + (size_t)w);
  1596  001632  C015  F001         	movff	pad@buf,strlen@s
  1597  001636  C016  F002         	movff	pad@buf+1,strlen@s+1
  1598  00163A  EC9C  F00E         	call	_strlen	;wreg free
  1599  00163E  501C               	movf	pad@w^0,w,c
  1600  001640  2401               	addwf	?_strlen^0,w,c
  1601  001642  6E13               	movwf	?_pad^0,c
  1602  001644  501D               	movf	(pad@w+1)^0,w,c
  1603  001646  2002               	addwfc	(?_strlen+1)^0,w,c
  1604  001648  6E14               	movwf	(?_pad+1)^0,c
  1605  00164A  0012               	return		;funcret
  1606  00164C                     __end_of_pad:
  1607                           	callstack 0
  1608                           
  1609 ;; *************** function _strlen *****************
  1610 ;; Defined at:
  1611 ;;		line 5 in file "C:\Program Files\Microchip\xc8\v2.36\pic\sources\c99\common\strlen.c"
  1612 ;; Parameters:    Size  Location     Type
  1613 ;;  s               2    0[COMRAM] PTR const unsigned char 
  1614 ;;		 -> dbuf(32), 
  1615 ;; Auto vars:     Size  Location     Type
  1616 ;;  a               2    2[COMRAM] PTR const unsigned char 
  1617 ;;		 -> dbuf(32), 
  1618 ;; Return value:  Size  Location     Type
  1619 ;;                  2    0[COMRAM] unsigned int 
  1620 ;; Registers used:
  1621 ;;		wreg, fsr2l, fsr2h, status,2, status,0
  1622 ;; Tracked objects:
  1623 ;;		On entry : 0/0
  1624 ;;		On exit  : 0/0
  1625 ;;		Unchanged: 0/0
  1626 ;; Data sizes:     COMRAM   BANK0   BANK1   BANK2   BANK3   BANK4   BANK5   BANK6   BANK7   BANK8   BANK9  BANK10  BANK1
      +1  BANK12  BANK14
  1627 ;;      Params:         2       0       0       0       0       0       0       0       0       0       0       0       
      +0       0       0
  1628 ;;      Locals:         2       0       0       0       0       0       0       0       0       0       0       0       
      +0       0       0
  1629 ;;      Temps:          0       0       0       0       0       0       0       0       0       0       0       0       
      +0       0       0
  1630 ;;      Totals:         4       0       0       0       0       0       0       0       0       0       0       0       
      +0       0       0
  1631 ;;Total ram usage:        4 bytes
  1632 ;; Hardware stack levels used: 1
  1633 ;; This function calls:
  1634 ;;		Nothing
  1635 ;; This function is called by:
  1636 ;;		_pad
  1637 ;; This function uses a non-reentrant model
  1638 ;;
  1639                           
  1640                           	psect	text6
  1641  001D38                     __ptext6:
  1642                           	callstack 0
  1643  001D38                     _strlen:
  1644                           	callstack 25
  1645  001D38  C001  F003         	movff	strlen@s,strlen@a
  1646  001D3C  C002  F004         	movff	strlen@s+1,strlen@a+1
  1647  001D40  EFA4  F00E         	goto	l2963
  1648  001D44                     l2961:
  1649  001D44  4A01               	infsnz	strlen@s^0,f,c
  1650  001D46  2A02               	incf	(strlen@s+1)^0,f,c
  1651  001D48                     l2963:
  1652  001D48  C001  FFD9         	movff	strlen@s,fsr2l
  1653  001D4C  C002  FFDA         	movff	strlen@s+1,fsr2h
  1654  001D50  50DF               	movf	indf2,w,c
  1655  001D52  A4D8               	btfss	status,2,c
  1656  001D54  EFAE  F00E         	goto	u1031
  1657  001D58  EFB0  F00E         	goto	u1030
  1658  001D5C                     u1031:
  1659  001D5C  EFA2  F00E         	goto	l2961
  1660  001D60                     u1030:
  1661  001D60  5003               	movf	strlen@a^0,w,c
  1662  001D62  5C01               	subwf	strlen@s^0,w,c
  1663  001D64  6E01               	movwf	?_strlen^0,c
  1664  001D66  5004               	movf	(strlen@a+1)^0,w,c
  1665  001D68  5802               	subwfb	(strlen@s+1)^0,w,c
  1666  001D6A  6E02               	movwf	(?_strlen+1)^0,c
  1667  001D6C  0012               	return		;funcret
  1668  001D6E                     __end_of_strlen:
  1669                           	callstack 0
  1670                           
  1671 ;; *************** function _fputs *****************
  1672 ;; Defined at:
  1673 ;;		line 8 in file "C:\Program Files\Microchip\xc8\v2.36\pic\sources\c99\common\nf_fputs.c"
  1674 ;; Parameters:    Size  Location     Type
  1675 ;;  s               2   11[COMRAM] PTR const unsigned char 
  1676 ;;		 -> dbuf(32), 
  1677 ;;  fp              2   13[COMRAM] PTR struct _IO_FILE
  1678 ;;		 -> NULL(0), 
  1679 ;; Auto vars:     Size  Location     Type
  1680 ;;  i               2   16[COMRAM] int 
  1681 ;;  c               1   15[COMRAM] unsigned char 
  1682 ;; Return value:  Size  Location     Type
  1683 ;;                  2   11[COMRAM] int 
  1684 ;; Registers used:
  1685 ;;		wreg, fsr1l, fsr1h, fsr2l, fsr2h, status,2, status,0, cstack
  1686 ;; Tracked objects:
  1687 ;;		On entry : 0/0
  1688 ;;		On exit  : 0/0
  1689 ;;		Unchanged: 0/0
  1690 ;; Data sizes:     COMRAM   BANK0   BANK1   BANK2   BANK3   BANK4   BANK5   BANK6   BANK7   BANK8   BANK9  BANK10  BANK1
      +1  BANK12  BANK14
  1691 ;;      Params:         4       0       0       0       0       0       0       0       0       0       0       0       
      +0       0       0
  1692 ;;      Locals:         3       0       0       0       0       0       0       0       0       0       0       0       
      +0       0       0
  1693 ;;      Temps:          0       0       0       0       0       0       0       0       0       0       0       0       
      +0       0       0
  1694 ;;      Totals:         7       0       0       0       0       0       0       0       0       0       0       0       
      +0       0       0
  1695 ;;Total ram usage:        7 bytes
  1696 ;; Hardware stack levels used: 1
  1697 ;; Hardware stack levels required when called: 3
  1698 ;; This function calls:
  1699 ;;		_fputc
  1700 ;; This function is called by:
  1701 ;;		_pad
  1702 ;; This function uses a non-reentrant model
  1703 ;;
  1704                           
  1705                           	psect	text7
  1706  001C28                     __ptext7:
  1707                           	callstack 0
  1708  001C28                     _fputs:
  1709                           	callstack 22
  1710  001C28  0E00               	movlw	0
  1711  001C2A  6E12               	movwf	(fputs@i+1)^0,c
  1712  001C2C  0E00               	movlw	0
  1713  001C2E  6E11               	movwf	fputs@i^0,c
  1714  001C30  EF25  F00E         	goto	l2957
  1715  001C34                     l2953:
  1716  001C34  C010  F003         	movff	fputs@c,fputc@c
  1717  001C38  6A04               	clrf	(fputc@c+1)^0,c
  1718  001C3A  C00E  F005         	movff	fputs@fp,fputc@fp
  1719  001C3E  C00F  F006         	movff	fputs@fp+1,fputc@fp+1
  1720  001C42  ECCB  F00B         	call	_fputc	;wreg free
  1721  001C46  4A11               	infsnz	fputs@i^0,f,c
  1722  001C48  2A12               	incf	(fputs@i+1)^0,f,c
  1723  001C4A                     l2957:
  1724  001C4A  5011               	movf	fputs@i^0,w,c
  1725  001C4C  240C               	addwf	fputs@s^0,w,c
  1726  001C4E  6ED9               	movwf	fsr2l,c
  1727  001C50  5012               	movf	(fputs@i+1)^0,w,c
  1728  001C52  200D               	addwfc	(fputs@s+1)^0,w,c
  1729  001C54  6EDA               	movwf	fsr2h,c
  1730  001C56  50DF               	movf	indf2,w,c
  1731  001C58  6E10               	movwf	fputs@c^0,c
  1732  001C5A  5010               	movf	fputs@c^0,w,c
  1733  001C5C  A4D8               	btfss	status,2,c
  1734  001C5E  EF33  F00E         	goto	u1021
  1735  001C62  EF35  F00E         	goto	u1020
  1736  001C66                     u1021:
  1737  001C66  EF1A  F00E         	goto	l2953
  1738  001C6A                     u1020:
  1739  001C6A  0012               	return		;funcret
  1740  001C6C                     __end_of_fputs:
  1741                           	callstack 0
  1742                           
  1743 ;; *************** function _fputc *****************
  1744 ;; Defined at:
  1745 ;;		line 8 in file "C:\Program Files\Microchip\xc8\v2.36\pic\sources\c99\common\nf_fputc.c"
  1746 ;; Parameters:    Size  Location     Type
  1747 ;;  c               2    2[COMRAM] int 
  1748 ;;  fp              2    4[COMRAM] PTR struct _IO_FILE
  1749 ;;		 -> NULL(0), 
  1750 ;; Auto vars:     Size  Location     Type
  1751 ;;		None
  1752 ;; Return value:  Size  Location     Type
  1753 ;;                  2    2[COMRAM] int 
  1754 ;; Registers used:
  1755 ;;		wreg, fsr1l, fsr1h, fsr2l, fsr2h, status,2, status,0, cstack
  1756 ;; Tracked objects:
  1757 ;;		On entry : 0/0
  1758 ;;		On exit  : 0/0
  1759 ;;		Unchanged: 0/0
  1760 ;; Data sizes:     COMRAM   BANK0   BANK1   BANK2   BANK3   BANK4   BANK5   BANK6   BANK7   BANK8   BANK9  BANK10  BANK1
      +1  BANK12  BANK14
  1761 ;;      Params:         4       0       0       0       0       0       0       0       0       0       0       0       
      +0       0       0
  1762 ;;      Locals:         0       0       0       0       0       0       0       0       0       0       0       0       
      +0       0       0
  1763 ;;      Temps:          5       0       0       0       0       0       0       0       0       0       0       0       
      +0       0       0
  1764 ;;      Totals:         9       0       0       0       0       0       0       0       0       0       0       0       
      +0       0       0
  1765 ;;Total ram usage:        9 bytes
  1766 ;; Hardware stack levels used: 1
  1767 ;; Hardware stack levels required when called: 2
  1768 ;; This function calls:
  1769 ;;		_putch
  1770 ;; This function is called by:
  1771 ;;		_pad
  1772 ;;		_vfpfcnvrt
  1773 ;;		_fputs
  1774 ;; This function uses a non-reentrant model
  1775 ;;
  1776                           
  1777                           	psect	text8
  1778  001796                     __ptext8:
  1779                           	callstack 0
  1780  001796                     _fputc:
  1781                           	callstack 22
  1782  001796  5005               	movf	fputc@fp^0,w,c
  1783  001798  1006               	iorwf	(fputc@fp+1)^0,w,c
  1784  00179A  B4D8               	btfsc	status,2,c
  1785  00179C  EFD2  F00B         	goto	u911
  1786  0017A0  EFD4  F00B         	goto	u910
  1787  0017A4                     u911:
  1788  0017A4  EFDD  F00B         	goto	l2785
  1789  0017A8                     u910:
  1790  0017A8  5005               	movf	fputc@fp^0,w,c
  1791  0017AA  1006               	iorwf	(fputc@fp+1)^0,w,c
  1792  0017AC  A4D8               	btfss	status,2,c
  1793  0017AE  EFDB  F00B         	goto	u921
  1794  0017B2  EFDD  F00B         	goto	u920
  1795  0017B6                     u921:
  1796  0017B6  EFE2  F00B         	goto	l2787
  1797  0017BA                     u920:
  1798  0017BA                     l2785:
  1799  0017BA  5003               	movf	fputc@c^0,w,c
  1800  0017BC  EC7C  F010         	call	_putch
  1801  0017C0  EF15  F00C         	goto	l1523
  1802  0017C4                     l2787:
  1803  0017C4  EE20 F009          	lfsr	2,9
  1804  0017C8  5005               	movf	fputc@fp^0,w,c
  1805  0017CA  26D9               	addwf	fsr2l,f,c
  1806  0017CC  5006               	movf	(fputc@fp+1)^0,w,c
  1807  0017CE  22DA               	addwfc	fsr2h,f,c
  1808  0017D0  50DE               	movf	postinc2,w,c
  1809  0017D2  10DE               	iorwf	postinc2,w,c
  1810  0017D4  B4D8               	btfsc	status,2,c
  1811  0017D6  EFEF  F00B         	goto	u931
  1812  0017DA  EFF1  F00B         	goto	u930
  1813  0017DE                     u931:
  1814  0017DE  EF0C  F00C         	goto	l2791
  1815  0017E2                     u930:
  1816  0017E2  EE20 F009          	lfsr	2,9
  1817  0017E6  5005               	movf	fputc@fp^0,w,c
  1818  0017E8  26D9               	addwf	fsr2l,f,c
  1819  0017EA  5006               	movf	(fputc@fp+1)^0,w,c
  1820  0017EC  22DA               	addwfc	fsr2h,f,c
  1821  0017EE  EE10 F003          	lfsr	1,3
  1822  0017F2  5005               	movf	fputc@fp^0,w,c
  1823  0017F4  26E1               	addwf	fsr1l,f,c
  1824  0017F6  5006               	movf	(fputc@fp+1)^0,w,c
  1825  0017F8  22E2               	addwfc	fsr1h,f,c
  1826  0017FA  50DE               	movf	postinc2,w,c
  1827  0017FC  5CE6               	subwf	postinc1,w,c
  1828  0017FE  50E6               	movf	postinc1,w,c
  1829  001800  0A80               	xorlw	128
  1830  001802  6E0B               	movwf	(??_fputc+4)^0,c
  1831  001804  50DE               	movf	postinc2,w,c
  1832  001806  0A80               	xorlw	128
  1833  001808  580B               	subwfb	(??_fputc+4)^0,w,c
  1834  00180A  B0D8               	btfsc	status,0,c
  1835  00180C  EF0A  F00C         	goto	u941
  1836  001810  EF0C  F00C         	goto	u940
  1837  001814                     u941:
  1838  001814  EF15  F00C         	goto	l1523
  1839  001818                     u940:
  1840  001818                     l2791:
  1841  001818  EE20 F003          	lfsr	2,3
  1842  00181C  5005               	movf	fputc@fp^0,w,c
  1843  00181E  26D9               	addwf	fsr2l,f,c
  1844  001820  5006               	movf	(fputc@fp+1)^0,w,c
  1845  001822  22DA               	addwfc	fsr2h,f,c
  1846  001824  2ADE               	incf	postinc2,f,c
  1847  001826  0E00               	movlw	0
  1848  001828  22DD               	addwfc	postdec2,f,c
  1849  00182A                     l1523:
  1850  00182A  0012               	return		;funcret
  1851  00182C                     __end_of_fputc:
  1852                           	callstack 0
  1853                           
  1854 ;; *************** function _putch *****************
  1855 ;; Defined at:
  1856 ;;		line 146 in file "mcc_generated_files/eusart2.c"
  1857 ;; Parameters:    Size  Location     Type
  1858 ;;  txData          1    wreg     unsigned char 
  1859 ;; Auto vars:     Size  Location     Type
  1860 ;;  txData          1    1[COMRAM] unsigned char 
  1861 ;; Return value:  Size  Location     Type
  1862 ;;                  1    wreg      void 
  1863 ;; Registers used:
  1864 ;;		wreg, status,2, cstack
  1865 ;; Tracked objects:
  1866 ;;		On entry : 0/0
  1867 ;;		On exit  : 0/0
  1868 ;;		Unchanged: 0/0
  1869 ;; Data sizes:     COMRAM   BANK0   BANK1   BANK2   BANK3   BANK4   BANK5   BANK6   BANK7   BANK8   BANK9  BANK10  BANK1
      +1  BANK12  BANK14
  1870 ;;      Params:         0       0       0       0       0       0       0       0       0       0       0       0       
      +0       0       0
  1871 ;;      Locals:         1       0       0       0       0       0       0       0       0       0       0       0       
      +0       0       0
  1872 ;;      Temps:          0       0       0       0       0       0       0       0       0       0       0       0       
      +0       0       0
  1873 ;;      Totals:         1       0       0       0       0       0       0       0       0       0       0       0       
      +0       0       0
  1874 ;;Total ram usage:        1 bytes
  1875 ;; Hardware stack levels used: 1
  1876 ;; Hardware stack levels required when called: 1
  1877 ;; This function calls:
  1878 ;;		_EUSART2_Write
  1879 ;; This function is called by:
  1880 ;;		_fputc
  1881 ;; This function uses a non-reentrant model
  1882 ;;
  1883                           
  1884                           	psect	text9
  1885  0020F8                     __ptext9:
  1886                           	callstack 0
  1887  0020F8                     _putch:
  1888                           	callstack 22
  1889                           
  1890                           ;incstack = 0
  1891                           ;putch@txData stored from wreg
  1892  0020F8  6E02               	movwf	putch@txData^0,c
  1893  0020FA                     
  1894                           ;mcc_generated_files/eusart2.c: 146: void putch(char txData);mcc_generated_files/eusart2
      +                          .c: 147: {;mcc_generated_files/eusart2.c: 148:     EUSART2_Write(txData);
  1895  0020FA  5002               	movf	putch@txData^0,w,c
  1896  0020FC  ECFC  F00F         	call	_EUSART2_Write
  1897  002100  0012               	return		;funcret
  1898  002102                     __end_of_putch:
  1899                           	callstack 0
  1900                           
  1901 ;; *************** function _EUSART2_Write *****************
  1902 ;; Defined at:
  1903 ;;		line 132 in file "mcc_generated_files/eusart2.c"
  1904 ;; Parameters:    Size  Location     Type
  1905 ;;  txData          1    wreg     unsigned char 
  1906 ;; Auto vars:     Size  Location     Type
  1907 ;;  txData          1    0[COMRAM] unsigned char 
  1908 ;; Return value:  Size  Location     Type
  1909 ;;                  1    wreg      void 
  1910 ;; Registers used:
  1911 ;;		wreg
  1912 ;; Tracked objects:
  1913 ;;		On entry : 0/0
  1914 ;;		On exit  : 0/0
  1915 ;;		Unchanged: 0/0
  1916 ;; Data sizes:     COMRAM   BANK0   BANK1   BANK2   BANK3   BANK4   BANK5   BANK6   BANK7   BANK8   BANK9  BANK10  BANK1
      +1  BANK12  BANK14
  1917 ;;      Params:         0       0       0       0       0       0       0       0       0       0       0       0       
      +0       0       0
  1918 ;;      Locals:         1       0       0       0       0       0       0       0       0       0       0       0       
      +0       0       0
  1919 ;;      Temps:          0       0       0       0       0       0       0       0       0       0       0       0       
      +0       0       0
  1920 ;;      Totals:         1       0       0       0       0       0       0       0       0       0       0       0       
      +0       0       0
  1921 ;;Total ram usage:        1 bytes
  1922 ;; Hardware stack levels used: 1
  1923 ;; This function calls:
  1924 ;;		Nothing
  1925 ;; This function is called by:
  1926 ;;		_putch
  1927 ;; This function uses a non-reentrant model
  1928 ;;
  1929                           
  1930                           	psect	text10
  1931  001FF8                     __ptext10:
  1932                           	callstack 0
  1933  001FF8                     _EUSART2_Write:
  1934                           	callstack 22
  1935                           
  1936                           ;incstack = 0
  1937                           ;EUSART2_Write@txData stored from wreg
  1938  001FF8  6E01               	movwf	EUSART2_Write@txData^0,c
  1939  001FFA                     l689:
  1940                           
  1941                           ;mcc_generated_files/eusart2.c: 134:     while(0 == PIR3bits.TX2IF)
  1942  001FFA  010E               	movlb	14	; () banked
  1943  001FFC  ADC8               	btfss	200,6,b	;volatile
  1944  001FFE  EF03  F010         	goto	u881
  1945  002002  EF05  F010         	goto	u880
  1946  002006                     u881:
  1947  002006  EFFD  F00F         	goto	l689
  1948  00200A                     u880:
  1949  00200A                     
  1950                           ; BSR set to: 14
  1951                           ;mcc_generated_files/eusart2.c: 138:     TX2REG = txData;
  1952  00200A  C001  FE95         	movff	EUSART2_Write@txData,3733	;volatile
  1953  00200E                     
  1954                           ; BSR set to: 14
  1955  00200E  0012               	return		;funcret
  1956  002010                     __end_of_EUSART2_Write:
  1957                           	callstack 0
  1958                           
  1959 ;; *************** function ___lomod *****************
  1960 ;; Defined at:
  1961 ;;		line 9 in file "C:\Program Files\Microchip\xc8\v2.36\pic\sources\c99\common\lomod.c"
  1962 ;; Parameters:    Size  Location     Type
  1963 ;;  dividend        8    0[COMRAM] unsigned long long 
  1964 ;;  divisor         8    8[COMRAM] unsigned long long 
  1965 ;; Auto vars:     Size  Location     Type
  1966 ;;  counter         1   16[COMRAM] unsigned char 
  1967 ;; Return value:  Size  Location     Type
  1968 ;;                  8    0[COMRAM] unsigned long long 
  1969 ;; Registers used:
  1970 ;;		wreg, status,2, status,0
  1971 ;; Tracked objects:
  1972 ;;		On entry : 0/0
  1973 ;;		On exit  : 0/0
  1974 ;;		Unchanged: 0/0
  1975 ;; Data sizes:     COMRAM   BANK0   BANK1   BANK2   BANK3   BANK4   BANK5   BANK6   BANK7   BANK8   BANK9  BANK10  BANK1
      +1  BANK12  BANK14
  1976 ;;      Params:        16       0       0       0       0       0       0       0       0       0       0       0       
      +0       0       0
  1977 ;;      Locals:         1       0       0       0       0       0       0       0       0       0       0       0       
      +0       0       0
  1978 ;;      Temps:          0       0       0       0       0       0       0       0       0       0       0       0       
      +0       0       0
  1979 ;;      Totals:        17       0       0       0       0       0       0       0       0       0       0       0       
      +0       0       0
  1980 ;;Total ram usage:       17 bytes
  1981 ;; Hardware stack levels used: 1
  1982 ;; This function calls:
  1983 ;;		Nothing
  1984 ;; This function is called by:
  1985 ;;		_utoa
  1986 ;; This function uses a non-reentrant model
  1987 ;;
  1988                           
  1989                           	psect	text11
  1990  0013EE                     __ptext11:
  1991                           	callstack 0
  1992  0013EE                     ___lomod:
  1993                           	callstack 26
  1994  0013EE  5009               	movf	___lomod@divisor^0,w,c
  1995  0013F0  100A               	iorwf	(___lomod@divisor+1)^0,w,c
  1996  0013F2  100B               	iorwf	(___lomod@divisor+2)^0,w,c
  1997  0013F4  100C               	iorwf	(___lomod@divisor+3)^0,w,c
  1998  0013F6  100D               	iorwf	(___lomod@divisor+4)^0,w,c
  1999  0013F8  100E               	iorwf	(___lomod@divisor+5)^0,w,c
  2000  0013FA  100F               	iorwf	(___lomod@divisor+6)^0,w,c
  2001  0013FC  1010               	iorwf	(___lomod@divisor+7)^0,w,c
  2002  0013FE  B4D8               	btfsc	status,2,c
  2003  001400  EF04  F00A         	goto	u1121
  2004  001404  EF06  F00A         	goto	u1120
  2005  001408                     u1121:
  2006  001408  EF4E  F00A         	goto	l1224
  2007  00140C                     u1120:
  2008  00140C  0E01               	movlw	1
  2009  00140E  6E11               	movwf	___lomod@counter^0,c
  2010  001410  EF14  F00A         	goto	l3009
  2011  001414                     l3007:
  2012  001414  90D8               	bcf	status,0,c
  2013  001416  3609               	rlcf	___lomod@divisor^0,f,c
  2014  001418  360A               	rlcf	(___lomod@divisor+1)^0,f,c
  2015  00141A  360B               	rlcf	(___lomod@divisor+2)^0,f,c
  2016  00141C  360C               	rlcf	(___lomod@divisor+3)^0,f,c
  2017  00141E  360D               	rlcf	(___lomod@divisor+4)^0,f,c
  2018  001420  360E               	rlcf	(___lomod@divisor+5)^0,f,c
  2019  001422  360F               	rlcf	(___lomod@divisor+6)^0,f,c
  2020  001424  3610               	rlcf	(___lomod@divisor+7)^0,f,c
  2021  001426  2A11               	incf	___lomod@counter^0,f,c
  2022  001428                     l3009:
  2023  001428  AE10               	btfss	(___lomod@divisor+7)^0,7,c
  2024  00142A  EF19  F00A         	goto	u1131
  2025  00142E  EF1B  F00A         	goto	u1130
  2026  001432                     u1131:
  2027  001432  EF0A  F00A         	goto	l3007
  2028  001436                     u1130:
  2029  001436                     l3011:
  2030  001436  5009               	movf	___lomod@divisor^0,w,c
  2031  001438  5C01               	subwf	___lomod@dividend^0,w,c
  2032  00143A  500A               	movf	(___lomod@divisor+1)^0,w,c
  2033  00143C  5802               	subwfb	(___lomod@dividend+1)^0,w,c
  2034  00143E  500B               	movf	(___lomod@divisor+2)^0,w,c
  2035  001440  5803               	subwfb	(___lomod@dividend+2)^0,w,c
  2036  001442  500C               	movf	(___lomod@divisor+3)^0,w,c
  2037  001444  5804               	subwfb	(___lomod@dividend+3)^0,w,c
  2038  001446  500D               	movf	(___lomod@divisor+4)^0,w,c
  2039  001448  5805               	subwfb	(___lomod@dividend+4)^0,w,c
  2040  00144A  500E               	movf	(___lomod@divisor+5)^0,w,c
  2041  00144C  5806               	subwfb	(___lomod@dividend+5)^0,w,c
  2042  00144E  500F               	movf	(___lomod@divisor+6)^0,w,c
  2043  001450  5807               	subwfb	(___lomod@dividend+6)^0,w,c
  2044  001452  5010               	movf	(___lomod@divisor+7)^0,w,c
  2045  001454  5808               	subwfb	(___lomod@dividend+7)^0,w,c
  2046  001456  A0D8               	btfss	status,0,c
  2047  001458  EF30  F00A         	goto	u1141
  2048  00145C  EF32  F00A         	goto	u1140
  2049  001460                     u1141:
  2050  001460  EF42  F00A         	goto	l3015
  2051  001464                     u1140:
  2052  001464  5009               	movf	___lomod@divisor^0,w,c
  2053  001466  5E01               	subwf	___lomod@dividend^0,f,c
  2054  001468  500A               	movf	(___lomod@divisor+1)^0,w,c
  2055  00146A  5A02               	subwfb	(___lomod@dividend+1)^0,f,c
  2056  00146C  500B               	movf	(___lomod@divisor+2)^0,w,c
  2057  00146E  5A03               	subwfb	(___lomod@dividend+2)^0,f,c
  2058  001470  500C               	movf	(___lomod@divisor+3)^0,w,c
  2059  001472  5A04               	subwfb	(___lomod@dividend+3)^0,f,c
  2060  001474  500D               	movf	(___lomod@divisor+4)^0,w,c
  2061  001476  5A05               	subwfb	(___lomod@dividend+4)^0,f,c
  2062  001478  500E               	movf	(___lomod@divisor+5)^0,w,c
  2063  00147A  5A06               	subwfb	(___lomod@dividend+5)^0,f,c
  2064  00147C  500F               	movf	(___lomod@divisor+6)^0,w,c
  2065  00147E  5A07               	subwfb	(___lomod@dividend+6)^0,f,c
  2066  001480  5010               	movf	(___lomod@divisor+7)^0,w,c
  2067  001482  5A08               	subwfb	(___lomod@dividend+7)^0,f,c
  2068  001484                     l3015:
  2069  001484  90D8               	bcf	status,0,c
  2070  001486  3210               	rrcf	(___lomod@divisor+7)^0,f,c
  2071  001488  320F               	rrcf	(___lomod@divisor+6)^0,f,c
  2072  00148A  320E               	rrcf	(___lomod@divisor+5)^0,f,c
  2073  00148C  320D               	rrcf	(___lomod@divisor+4)^0,f,c
  2074  00148E  320C               	rrcf	(___lomod@divisor+3)^0,f,c
  2075  001490  320B               	rrcf	(___lomod@divisor+2)^0,f,c
  2076  001492  320A               	rrcf	(___lomod@divisor+1)^0,f,c
  2077  001494  3209               	rrcf	___lomod@divisor^0,f,c
  2078  001496  2E11               	decfsz	___lomod@counter^0,f,c
  2079  001498  EF1B  F00A         	goto	l3011
  2080  00149C                     l1224:
  2081  00149C  C001  F001         	movff	___lomod@dividend,?___lomod
  2082  0014A0  C002  F002         	movff	___lomod@dividend+1,?___lomod+1
  2083  0014A4  C003  F003         	movff	___lomod@dividend+2,?___lomod+2
  2084  0014A8  C004  F004         	movff	___lomod@dividend+3,?___lomod+3
  2085  0014AC  C005  F005         	movff	___lomod@dividend+4,?___lomod+4
  2086  0014B0  C006  F006         	movff	___lomod@dividend+5,?___lomod+5
  2087  0014B4  C007  F007         	movff	___lomod@dividend+6,?___lomod+6
  2088  0014B8  C008  F008         	movff	___lomod@dividend+7,?___lomod+7
  2089  0014BC  0012               	return		;funcret
  2090  0014BE                     __end_of___lomod:
  2091                           	callstack 0
  2092                           
  2093 ;; *************** function ___lodiv *****************
  2094 ;; Defined at:
  2095 ;;		line 9 in file "C:\Program Files\Microchip\xc8\v2.36\pic\sources\c99\common\lodiv.c"
  2096 ;; Parameters:    Size  Location     Type
  2097 ;;  dividend        8    0[COMRAM] unsigned long long 
  2098 ;;  divisor         8    8[COMRAM] unsigned long long 
  2099 ;; Auto vars:     Size  Location     Type
  2100 ;;  quotient        8   16[COMRAM] unsigned long long 
  2101 ;;  counter         1   24[COMRAM] unsigned char 
  2102 ;; Return value:  Size  Location     Type
  2103 ;;                  8    0[COMRAM] unsigned long long 
  2104 ;; Registers used:
  2105 ;;		wreg, fsr2l, fsr2h, status,2, status,0
  2106 ;; Tracked objects:
  2107 ;;		On entry : 0/0
  2108 ;;		On exit  : 0/0
  2109 ;;		Unchanged: 0/0
  2110 ;; Data sizes:     COMRAM   BANK0   BANK1   BANK2   BANK3   BANK4   BANK5   BANK6   BANK7   BANK8   BANK9  BANK10  BANK1
      +1  BANK12  BANK14
  2111 ;;      Params:        16       0       0       0       0       0       0       0       0       0       0       0       
      +0       0       0
  2112 ;;      Locals:         9       0       0       0       0       0       0       0       0       0       0       0       
      +0       0       0
  2113 ;;      Temps:          0       0       0       0       0       0       0       0       0       0       0       0       
      +0       0       0
  2114 ;;      Totals:        25       0       0       0       0       0       0       0       0       0       0       0       
      +0       0       0
  2115 ;;Total ram usage:       25 bytes
  2116 ;; Hardware stack levels used: 1
  2117 ;; This function calls:
  2118 ;;		Nothing
  2119 ;; This function is called by:
  2120 ;;		_utoa
  2121 ;; This function uses a non-reentrant model
  2122 ;;
  2123                           
  2124                           	psect	text12
  2125  0012FE                     __ptext12:
  2126                           	callstack 0
  2127  0012FE                     ___lodiv:
  2128                           	callstack 26
  2129  0012FE  EE20  F011         	lfsr	2,___lodiv@quotient
  2130  001302  0E07               	movlw	7
  2131  001304                     u1081:
  2132  001304  6ADE               	clrf	postinc2,c
  2133  001306  06E8               	decf	wreg,f,c
  2134  001308  E2FD               	bc	u1081
  2135  00130A  5009               	movf	___lodiv@divisor^0,w,c
  2136  00130C  100A               	iorwf	(___lodiv@divisor+1)^0,w,c
  2137  00130E  100B               	iorwf	(___lodiv@divisor+2)^0,w,c
  2138  001310  100C               	iorwf	(___lodiv@divisor+3)^0,w,c
  2139  001312  100D               	iorwf	(___lodiv@divisor+4)^0,w,c
  2140  001314  100E               	iorwf	(___lodiv@divisor+5)^0,w,c
  2141  001316  100F               	iorwf	(___lodiv@divisor+6)^0,w,c
  2142  001318  1010               	iorwf	(___lodiv@divisor+7)^0,w,c
  2143  00131A  B4D8               	btfsc	status,2,c
  2144  00131C  EF92  F009         	goto	u1091
  2145  001320  EF94  F009         	goto	u1090
  2146  001324                     u1091:
  2147  001324  EFE6  F009         	goto	l1214
  2148  001328                     u1090:
  2149  001328  0E01               	movlw	1
  2150  00132A  6E19               	movwf	___lodiv@counter^0,c
  2151  00132C  EFA2  F009         	goto	l2989
  2152  001330                     l2987:
  2153  001330  90D8               	bcf	status,0,c
  2154  001332  3609               	rlcf	___lodiv@divisor^0,f,c
  2155  001334  360A               	rlcf	(___lodiv@divisor+1)^0,f,c
  2156  001336  360B               	rlcf	(___lodiv@divisor+2)^0,f,c
  2157  001338  360C               	rlcf	(___lodiv@divisor+3)^0,f,c
  2158  00133A  360D               	rlcf	(___lodiv@divisor+4)^0,f,c
  2159  00133C  360E               	rlcf	(___lodiv@divisor+5)^0,f,c
  2160  00133E  360F               	rlcf	(___lodiv@divisor+6)^0,f,c
  2161  001340  3610               	rlcf	(___lodiv@divisor+7)^0,f,c
  2162  001342  2A19               	incf	___lodiv@counter^0,f,c
  2163  001344                     l2989:
  2164  001344  AE10               	btfss	(___lodiv@divisor+7)^0,7,c
  2165  001346  EFA7  F009         	goto	u1101
  2166  00134A  EFA9  F009         	goto	u1100
  2167  00134E                     u1101:
  2168  00134E  EF98  F009         	goto	l2987
  2169  001352                     u1100:
  2170  001352                     l2991:
  2171  001352  90D8               	bcf	status,0,c
  2172  001354  3611               	rlcf	___lodiv@quotient^0,f,c
  2173  001356  3612               	rlcf	(___lodiv@quotient+1)^0,f,c
  2174  001358  3613               	rlcf	(___lodiv@quotient+2)^0,f,c
  2175  00135A  3614               	rlcf	(___lodiv@quotient+3)^0,f,c
  2176  00135C  3615               	rlcf	(___lodiv@quotient+4)^0,f,c
  2177  00135E  3616               	rlcf	(___lodiv@quotient+5)^0,f,c
  2178  001360  3617               	rlcf	(___lodiv@quotient+6)^0,f,c
  2179  001362  3618               	rlcf	(___lodiv@quotient+7)^0,f,c
  2180  001364  5009               	movf	___lodiv@divisor^0,w,c
  2181  001366  5C01               	subwf	___lodiv@dividend^0,w,c
  2182  001368  500A               	movf	(___lodiv@divisor+1)^0,w,c
  2183  00136A  5802               	subwfb	(___lodiv@dividend+1)^0,w,c
  2184  00136C  500B               	movf	(___lodiv@divisor+2)^0,w,c
  2185  00136E  5803               	subwfb	(___lodiv@dividend+2)^0,w,c
  2186  001370  500C               	movf	(___lodiv@divisor+3)^0,w,c
  2187  001372  5804               	subwfb	(___lodiv@dividend+3)^0,w,c
  2188  001374  500D               	movf	(___lodiv@divisor+4)^0,w,c
  2189  001376  5805               	subwfb	(___lodiv@dividend+4)^0,w,c
  2190  001378  500E               	movf	(___lodiv@divisor+5)^0,w,c
  2191  00137A  5806               	subwfb	(___lodiv@dividend+5)^0,w,c
  2192  00137C  500F               	movf	(___lodiv@divisor+6)^0,w,c
  2193  00137E  5807               	subwfb	(___lodiv@dividend+6)^0,w,c
  2194  001380  5010               	movf	(___lodiv@divisor+7)^0,w,c
  2195  001382  5808               	subwfb	(___lodiv@dividend+7)^0,w,c
  2196  001384  A0D8               	btfss	status,0,c
  2197  001386  EFC7  F009         	goto	u1111
  2198  00138A  EFC9  F009         	goto	u1110
  2199  00138E                     u1111:
  2200  00138E  EFDA  F009         	goto	l2999
  2201  001392                     u1110:
  2202  001392  5009               	movf	___lodiv@divisor^0,w,c
  2203  001394  5E01               	subwf	___lodiv@dividend^0,f,c
  2204  001396  500A               	movf	(___lodiv@divisor+1)^0,w,c
  2205  001398  5A02               	subwfb	(___lodiv@dividend+1)^0,f,c
  2206  00139A  500B               	movf	(___lodiv@divisor+2)^0,w,c
  2207  00139C  5A03               	subwfb	(___lodiv@dividend+2)^0,f,c
  2208  00139E  500C               	movf	(___lodiv@divisor+3)^0,w,c
  2209  0013A0  5A04               	subwfb	(___lodiv@dividend+3)^0,f,c
  2210  0013A2  500D               	movf	(___lodiv@divisor+4)^0,w,c
  2211  0013A4  5A05               	subwfb	(___lodiv@dividend+4)^0,f,c
  2212  0013A6  500E               	movf	(___lodiv@divisor+5)^0,w,c
  2213  0013A8  5A06               	subwfb	(___lodiv@dividend+5)^0,f,c
  2214  0013AA  500F               	movf	(___lodiv@divisor+6)^0,w,c
  2215  0013AC  5A07               	subwfb	(___lodiv@dividend+6)^0,f,c
  2216  0013AE  5010               	movf	(___lodiv@divisor+7)^0,w,c
  2217  0013B0  5A08               	subwfb	(___lodiv@dividend+7)^0,f,c
  2218  0013B2  8011               	bsf	___lodiv@quotient^0,0,c
  2219  0013B4                     l2999:
  2220  0013B4  90D8               	bcf	status,0,c
  2221  0013B6  3210               	rrcf	(___lodiv@divisor+7)^0,f,c
  2222  0013B8  320F               	rrcf	(___lodiv@divisor+6)^0,f,c
  2223  0013BA  320E               	rrcf	(___lodiv@divisor+5)^0,f,c
  2224  0013BC  320D               	rrcf	(___lodiv@divisor+4)^0,f,c
  2225  0013BE  320C               	rrcf	(___lodiv@divisor+3)^0,f,c
  2226  0013C0  320B               	rrcf	(___lodiv@divisor+2)^0,f,c
  2227  0013C2  320A               	rrcf	(___lodiv@divisor+1)^0,f,c
  2228  0013C4  3209               	rrcf	___lodiv@divisor^0,f,c
  2229  0013C6  2E19               	decfsz	___lodiv@counter^0,f,c
  2230  0013C8  EFA9  F009         	goto	l2991
  2231  0013CC                     l1214:
  2232  0013CC  C011  F001         	movff	___lodiv@quotient,?___lodiv
  2233  0013D0  C012  F002         	movff	___lodiv@quotient+1,?___lodiv+1
  2234  0013D4  C013  F003         	movff	___lodiv@quotient+2,?___lodiv+2
  2235  0013D8  C014  F004         	movff	___lodiv@quotient+3,?___lodiv+3
  2236  0013DC  C015  F005         	movff	___lodiv@quotient+4,?___lodiv+4
  2237  0013E0  C016  F006         	movff	___lodiv@quotient+5,?___lodiv+5
  2238  0013E4  C017  F007         	movff	___lodiv@quotient+6,?___lodiv+6
  2239  0013E8  C018  F008         	movff	___lodiv@quotient+7,?___lodiv+7
  2240  0013EC  0012               	return		;funcret
  2241  0013EE                     __end_of___lodiv:
  2242                           	callstack 0
  2243                           
  2244 ;; *************** function _i2c_read2ByteRegister *****************
  2245 ;; Defined at:
  2246 ;;		line 135 in file "mcc_generated_files/drivers/i2c_simple_master.c"
  2247 ;; Parameters:    Size  Location     Type
  2248 ;;  address         1    wreg     unsigned char 
  2249 ;;  reg             1   17[COMRAM] unsigned char 
  2250 ;; Auto vars:     Size  Location     Type
  2251 ;;  address         1   22[COMRAM] unsigned char 
  2252 ;;  result          2   23[COMRAM] unsigned short 
  2253 ;; Return value:  Size  Location     Type
  2254 ;;                  2   17[COMRAM] unsigned short 
  2255 ;; Registers used:
  2256 ;;		wreg, fsr2l, fsr2h, status,2, status,0, pcl, pclath, pclatu, tosl, tblptrl, tblptrh, tblptru, prodl, prodh, cstack
  2257 ;; Tracked objects:
  2258 ;;		On entry : 0/0
  2259 ;;		On exit  : 0/0
  2260 ;;		Unchanged: 0/0
  2261 ;; Data sizes:     COMRAM   BANK0   BANK1   BANK2   BANK3   BANK4   BANK5   BANK6   BANK7   BANK8   BANK9  BANK10  BANK1
      +1  BANK12  BANK14
  2262 ;;      Params:         2       0       0       0       0       0       0       0       0       0       0       0       
      +0       0       0
  2263 ;;      Locals:         3       0       0       0       0       0       0       0       0       0       0       0       
      +0       0       0
  2264 ;;      Temps:          3       0       0       0       0       0       0       0       0       0       0       0       
      +0       0       0
  2265 ;;      Totals:         8       0       0       0       0       0       0       0       0       0       0       0       
      +0       0       0
  2266 ;;Total ram usage:        8 bytes
  2267 ;; Hardware stack levels used: 1
  2268 ;; Hardware stack levels required when called: 8
  2269 ;; This function calls:
  2270 ;;		_I2C1_Close
  2271 ;;		_I2C1_MasterWrite
  2272 ;;		_I2C1_Open
  2273 ;;		_I2C1_SetAddressNackCallback
  2274 ;;		_I2C1_SetBuffer
  2275 ;;		_I2C1_SetDataCompleteCallback
  2276 ;; This function is called by:
  2277 ;;		_main
  2278 ;; This function uses a non-reentrant model
  2279 ;;
  2280                           
  2281                           	psect	text13
  2282  0018C2                     __ptext13:
  2283                           	callstack 0
  2284  0018C2                     _i2c_read2ByteRegister:
  2285                           	callstack 22
  2286                           
  2287                           ;incstack = 0
  2288                           ;i2c_read2ByteRegister@address stored from wreg
  2289  0018C2  6E17               	movwf	i2c_read2ByteRegister@address^0,c
  2290  0018C4                     l3255:
  2291  0018C4  5017               	movf	i2c_read2ByteRegister@address^0,w,c
  2292  0018C6  EC7A  F00B         	call	_I2C1_Open
  2293  0018CA  0900               	iorlw	0
  2294  0018CC  B4D8               	btfsc	status,2,c
  2295  0018CE  EF6B  F00C         	goto	u1361
  2296  0018D2  EF6D  F00C         	goto	u1360
  2297  0018D6                     u1361:
  2298  0018D6  EF62  F00C         	goto	l3255
  2299  0018DA                     u1360:
  2300  0018DA                     
  2301                           ;mcc_generated_files/drivers/i2c_simple_master.c: 141:     I2C1_SetDataCompleteCallback(
      +                          rd2RegCompleteHandler,&result);
  2302  0018DA  0E2E               	movlw	low _rd2RegCompleteHandler
  2303  0018DC  6E07               	movwf	I2C1_SetDataCompleteCallback@cb^0,c
  2304  0018DE  0E1E               	movlw	high _rd2RegCompleteHandler
  2305  0018E0  6E08               	movwf	(I2C1_SetDataCompleteCallback@cb+1)^0,c
  2306  0018E2  0E00               	movlw	low (_rd2RegCompleteHandler shr (0+16))
  2307  0018E4  6E09               	movwf	(I2C1_SetDataCompleteCallback@cb+2)^0,c
  2308  0018E6  0E18               	movlw	low i2c_read2ByteRegister@result
  2309  0018E8  6E0A               	movwf	I2C1_SetDataCompleteCallback@ptr^0,c
  2310  0018EA  0E00               	movlw	high i2c_read2ByteRegister@result
  2311  0018EC  6E0B               	movwf	(I2C1_SetDataCompleteCallback@ptr+1)^0,c
  2312  0018EE  ECE0  F00F         	call	_I2C1_SetDataCompleteCallback	;wreg free
  2313  0018F2                     
  2314                           ;mcc_generated_files/drivers/i2c_simple_master.c: 142:     I2C1_SetBuffer(&reg,1);
  2315  0018F2  0E12               	movlw	low i2c_read2ByteRegister@reg
  2316  0018F4  6E01               	movwf	I2C1_SetBuffer@buffer^0,c
  2317  0018F6  0E00               	movlw	high i2c_read2ByteRegister@reg
  2318  0018F8  6E02               	movwf	(I2C1_SetBuffer@buffer+1)^0,c
  2319  0018FA  0E00               	movlw	0
  2320  0018FC  6E04               	movwf	(I2C1_SetBuffer@bufferSize+1)^0,c
  2321  0018FE  0E01               	movlw	1
  2322  001900  6E03               	movwf	I2C1_SetBuffer@bufferSize^0,c
  2323  001902  ECA0  F00F         	call	_I2C1_SetBuffer	;wreg free
  2324  001906                     
  2325                           ;mcc_generated_files/drivers/i2c_simple_master.c: 143:     I2C1_SetAddressNackCallback((
      +                          (void*)0),((void*)0));
  2326  001906  0E00               	movlw	0
  2327  001908  6E07               	movwf	I2C1_SetAddressNackCallback@cb^0,c
  2328  00190A  0E00               	movlw	0
  2329  00190C  6E08               	movwf	(I2C1_SetAddressNackCallback@cb+1)^0,c
  2330  00190E  0E00               	movlw	0
  2331  001910  6E09               	movwf	(I2C1_SetAddressNackCallback@cb+2)^0,c
  2332  001912  0E00               	movlw	0
  2333  001914  6E0A               	movwf	I2C1_SetAddressNackCallback@ptr^0,c
  2334  001916  0E00               	movlw	0
  2335  001918  6E0B               	movwf	(I2C1_SetAddressNackCallback@ptr+1)^0,c
  2336  00191A  ECD2  F00F         	call	_I2C1_SetAddressNackCallback	;wreg free
  2337  00191E                     
  2338                           ;mcc_generated_files/drivers/i2c_simple_master.c: 144:     I2C1_MasterWrite();
  2339  00191E  EC81  F010         	call	_I2C1_MasterWrite	;wreg free
  2340  001922                     l3265:
  2341  001922  EC77  F00F         	call	_I2C1_Close	;wreg free
  2342  001926  06E8               	decf	wreg,f,c
  2343  001928  B4D8               	btfsc	status,2,c
  2344  00192A  EF99  F00C         	goto	u1371
  2345  00192E  EF9B  F00C         	goto	u1370
  2346  001932                     u1371:
  2347  001932  EF91  F00C         	goto	l3265
  2348  001936                     u1370:
  2349  001936                     
  2350                           ;mcc_generated_files/drivers/i2c_simple_master.c: 147:     return (result << 8 | result 
      +                          >> 8);
  2351  001936  C019  F014         	movff	i2c_read2ByteRegister@result+1,??_i2c_read2ByteRegister
  2352  00193A  5018               	movf	i2c_read2ByteRegister@result^0,w,c
  2353  00193C  6E15               	movwf	(??_i2c_read2ByteRegister+1)^0,c
  2354  00193E  5014               	movf	??_i2c_read2ByteRegister^0,w,c
  2355  001940  6E12               	movwf	?_i2c_read2ByteRegister^0,c
  2356  001942  C015  F013         	movff	??_i2c_read2ByteRegister+1,?_i2c_read2ByteRegister+1
  2357  001946  0012               	return		;funcret
  2358  001948                     __end_of_i2c_read2ByteRegister:
  2359                           	callstack 0
  2360                           
  2361 ;; *************** function _I2C1_SetAddressNackCallback *****************
  2362 ;; Defined at:
  2363 ;;		line 283 in file "mcc_generated_files/i2c1_master.c"
  2364 ;; Parameters:    Size  Location     Type
  2365 ;;  cb              3    6[COMRAM] PTR FTN(PTR void ,)enum 
  2366 ;;		 -> Absolute function(1), 
  2367 ;;  ptr             2    9[COMRAM] PTR void 
  2368 ;;		 -> NULL(0), 
  2369 ;; Auto vars:     Size  Location     Type
  2370 ;;		None
  2371 ;; Return value:  Size  Location     Type
  2372 ;;                  1    wreg      void 
  2373 ;; Registers used:
  2374 ;;		wreg, fsr2l, fsr2h, status,2, status,0, prodl, prodh, cstack
  2375 ;; Tracked objects:
  2376 ;;		On entry : 0/0
  2377 ;;		On exit  : 0/0
  2378 ;;		Unchanged: 0/0
  2379 ;; Data sizes:     COMRAM   BANK0   BANK1   BANK2   BANK3   BANK4   BANK5   BANK6   BANK7   BANK8   BANK9  BANK10  BANK1
      +1  BANK12  BANK14
  2380 ;;      Params:         5       0       0       0       0       0       0       0       0       0       0       0       
      +0       0       0
  2381 ;;      Locals:         0       0       0       0       0       0       0       0       0       0       0       0       
      +0       0       0
  2382 ;;      Temps:          0       0       0       0       0       0       0       0       0       0       0       0       
      +0       0       0
  2383 ;;      Totals:         5       0       0       0       0       0       0       0       0       0       0       0       
      +0       0       0
  2384 ;;Total ram usage:        5 bytes
  2385 ;; Hardware stack levels used: 1
  2386 ;; Hardware stack levels required when called: 1
  2387 ;; This function calls:
  2388 ;;		_I2C1_SetCallback
  2389 ;; This function is called by:
  2390 ;;		_i2c_read2ByteRegister
  2391 ;;		_i2c_write1ByteRegister
  2392 ;;		_i2c_writeNBytes
  2393 ;;		_i2c_read1ByteRegister
  2394 ;;		_i2c_write2ByteRegister
  2395 ;;		_i2c_readDataBlock
  2396 ;;		_I2C1_Read1ByteRegister
  2397 ;;		_I2C1_Read2ByteRegister
  2398 ;;		_I2C1_Write1ByteRegister
  2399 ;;		_I2C1_Write2ByteRegister
  2400 ;;		_I2C1_WriteNBytes
  2401 ;;		_I2C1_ReadDataBlock
  2402 ;; This function uses a non-reentrant model
  2403 ;;
  2404                           
  2405                           	psect	text14
  2406  001FA4                     __ptext14:
  2407                           	callstack 0
  2408  001FA4                     _I2C1_SetAddressNackCallback:
  2409                           	callstack 28
  2410  001FA4                     
  2411                           ;mcc_generated_files/i2c1_master.c: 283: void I2C1_SetAddressNackCallback(i2c1_callback_
      +                          t cb, void *ptr);mcc_generated_files/i2c1_master.c: 284: {;mcc_generated_files/i2c1_mast
      +                          er.c: 285:     I2C1_SetCallback(I2C1_ADDR_NACK, cb, ptr);
  2412  001FA4  C007  F001         	movff	I2C1_SetAddressNackCallback@cb,I2C1_SetCallback@cb
  2413  001FA8  C008  F002         	movff	I2C1_SetAddressNackCallback@cb+1,I2C1_SetCallback@cb+1
  2414  001FAC  C009  F003         	movff	I2C1_SetAddressNackCallback@cb+2,I2C1_SetCallback@cb+2
  2415  001FB0  C00A  F004         	movff	I2C1_SetAddressNackCallback@ptr,I2C1_SetCallback@ptr
  2416  001FB4  C00B  F005         	movff	I2C1_SetAddressNackCallback@ptr+1,I2C1_SetCallback@ptr+1
  2417  001FB8  0E02               	movlw	2
  2418  001FBA  ECA4  F00C         	call	_I2C1_SetCallback
  2419  001FBE  0012               	return		;funcret
  2420  001FC0                     __end_of_I2C1_SetAddressNackCallback:
  2421                           	callstack 0
  2422                           
  2423 ;; *************** function _I2C1_Open *****************
  2424 ;; Defined at:
  2425 ;;		line 176 in file "mcc_generated_files/i2c1_master.c"
  2426 ;; Parameters:    Size  Location     Type
  2427 ;;  address         1    wreg     unsigned char 
  2428 ;; Auto vars:     Size  Location     Type
  2429 ;;  address         1    0[COMRAM] unsigned char 
  2430 ;;  returnValue     1    1[COMRAM] enum E355
  2431 ;; Return value:  Size  Location     Type
  2432 ;;                  1    wreg      enum E355
  2433 ;; Registers used:
  2434 ;;		wreg, status,2, status,0, cstack
  2435 ;; Tracked objects:
  2436 ;;		On entry : 0/0
  2437 ;;		On exit  : 0/0
  2438 ;;		Unchanged: 0/0
  2439 ;; Data sizes:     COMRAM   BANK0   BANK1   BANK2   BANK3   BANK4   BANK5   BANK6   BANK7   BANK8   BANK9  BANK10  BANK1
      +1  BANK12  BANK14
  2440 ;;      Params:         0       0       0       0       0       0       0       0       0       0       0       0       
      +0       0       0
  2441 ;;      Locals:         2       0       0       0       0       0       0       0       0       0       0       0       
      +0       0       0
  2442 ;;      Temps:          0       0       0       0       0       0       0       0       0       0       0       0       
      +0       0       0
  2443 ;;      Totals:         2       0       0       0       0       0       0       0       0       0       0       0       
      +0       0       0
  2444 ;;Total ram usage:        2 bytes
  2445 ;; Hardware stack levels used: 1
  2446 ;; Hardware stack levels required when called: 1
  2447 ;; This function calls:
  2448 ;;		_I2C1_MasterClearIrq
  2449 ;;		_I2C1_MasterOpen
  2450 ;; This function is called by:
  2451 ;;		_i2c_read2ByteRegister
  2452 ;;		_i2c_write1ByteRegister
  2453 ;;		_i2c_writeNBytes
  2454 ;;		_i2c_read1ByteRegister
  2455 ;;		_i2c_write2ByteRegister
  2456 ;;		_i2c_readDataBlock
  2457 ;;		_i2c_readNBytes
  2458 ;;		_I2C1_Read1ByteRegister
  2459 ;;		_I2C1_Read2ByteRegister
  2460 ;;		_I2C1_Write1ByteRegister
  2461 ;;		_I2C1_Write2ByteRegister
  2462 ;;		_I2C1_WriteNBytes
  2463 ;;		_I2C1_ReadNBytes
  2464 ;;		_I2C1_ReadDataBlock
  2465 ;; This function uses a non-reentrant model
  2466 ;;
  2467                           
  2468                           	psect	text15
  2469  0016F4                     __ptext15:
  2470                           	callstack 0
  2471  0016F4                     _I2C1_Open:
  2472                           	callstack 28
  2473                           
  2474                           ;incstack = 0
  2475                           ;I2C1_Open@address stored from wreg
  2476  0016F4  6E01               	movwf	I2C1_Open@address^0,c
  2477  0016F6                     
  2478                           ;mcc_generated_files/i2c1_master.c: 176: i2c1_error_t I2C1_Open(i2c1_address_t address);
      +                          mcc_generated_files/i2c1_master.c: 177: {;mcc_generated_files/i2c1_master.c: 178:     i2
      +                          c1_error_t returnValue = I2C1_BUSY;
  2479  0016F6  0E01               	movlw	1
  2480  0016F8  6E02               	movwf	I2C1_Open@returnValue^0,c
  2481  0016FA                     
  2482                           ;mcc_generated_files/i2c1_master.c: 180:     if(!I2C1_Status.inUse)
  2483  0016FA  0100               	movlb	0	; () banked
  2484  0016FC  B589               	btfsc	(_I2C1_Status+41)& (0+255),2,b
  2485  0016FE  EF83  F00B         	goto	u1331
  2486  001702  EF85  F00B         	goto	u1330
  2487  001706                     u1331:
  2488  001706  EFC9  F00B         	goto	l3211
  2489  00170A                     u1330:
  2490  00170A                     
  2491                           ; BSR set to: 0
  2492                           ;mcc_generated_files/i2c1_master.c: 181:     {;mcc_generated_files/i2c1_master.c: 182:  
      +                                 I2C1_Status.address = address;
  2493  00170A  C001  F082         	movff	I2C1_Open@address,_I2C1_Status+34
  2494  00170E                     
  2495                           ; BSR set to: 0
  2496                           ;mcc_generated_files/i2c1_master.c: 183:         I2C1_Status.busy = 0;
  2497  00170E  9389               	bcf	(_I2C1_Status+41)& (0+255),1,b
  2498  001710                     
  2499                           ; BSR set to: 0
  2500                           ;mcc_generated_files/i2c1_master.c: 184:         I2C1_Status.inUse = 1;
  2501  001710  8589               	bsf	(_I2C1_Status+41)& (0+255),2,b
  2502  001712                     
  2503                           ; BSR set to: 0
  2504                           ;mcc_generated_files/i2c1_master.c: 185:         I2C1_Status.addressNackCheck = 0;
  2505  001712  9189               	bcf	(_I2C1_Status+41)& (0+255),0,b
  2506  001714                     
  2507                           ; BSR set to: 0
  2508                           ;mcc_generated_files/i2c1_master.c: 186:         I2C1_Status.state = I2C1_RESET;
  2509  001714  0E0E               	movlw	14
  2510  001716  6F87               	movwf	(_I2C1_Status+39)& (0+255),b
  2511  001718                     
  2512                           ; BSR set to: 0
  2513                           ;mcc_generated_files/i2c1_master.c: 187:         I2C1_Status.time_out_value = 500;
  2514  001718  0E01               	movlw	1
  2515  00171A  6F81               	movwf	(_I2C1_Status+33)& (0+255),b
  2516  00171C  0EF4               	movlw	244
  2517  00171E  6F80               	movwf	(_I2C1_Status+32)& (0+255),b
  2518  001720                     
  2519                           ; BSR set to: 0
  2520                           ;mcc_generated_files/i2c1_master.c: 188:         I2C1_Status.bufferFree = 1;
  2521  001720  8789               	bsf	(_I2C1_Status+41)& (0+255),3,b
  2522  001722                     
  2523                           ; BSR set to: 0
  2524                           ;mcc_generated_files/i2c1_master.c: 191:         I2C1_Status.callbackTable[I2C1_DATA_COM
      +                          PLETE]=I2C1_CallbackReturnStop;
  2525  001722  0E74               	movlw	low _I2C1_CallbackReturnStop
  2526  001724  6F60               	movwf	_I2C1_Status& (0+255),b
  2527  001726  0E21               	movlw	high _I2C1_CallbackReturnStop
  2528  001728  6F61               	movwf	(_I2C1_Status+1)& (0+255),b
  2529  00172A  0E00               	movlw	low (_I2C1_CallbackReturnStop shr (0+16))
  2530  00172C  6F62               	movwf	(_I2C1_Status+2)& (0+255),b
  2531  00172E                     
  2532                           ; BSR set to: 0
  2533                           ;mcc_generated_files/i2c1_master.c: 192:         I2C1_Status.callbackPayload[I2C1_DATA_C
      +                          OMPLETE] = ((void*)0);
  2534  00172E  0E00               	movlw	0
  2535  001730  6F72               	movwf	(_I2C1_Status+18)& (0+255),b
  2536  001732  0E00               	movlw	0
  2537  001734  6F73               	movwf	(_I2C1_Status+19)& (0+255),b
  2538  001736                     
  2539                           ; BSR set to: 0
  2540                           ;mcc_generated_files/i2c1_master.c: 193:         I2C1_Status.callbackTable[I2C1_WRITE_CO
      +                          LLISION]=I2C1_CallbackReturnStop;
  2541  001736  0E74               	movlw	low _I2C1_CallbackReturnStop
  2542  001738  6F63               	movwf	(_I2C1_Status+3)& (0+255),b
  2543  00173A  0E21               	movlw	high _I2C1_CallbackReturnStop
  2544  00173C  6F64               	movwf	(_I2C1_Status+4)& (0+255),b
  2545  00173E  0E00               	movlw	low (_I2C1_CallbackReturnStop shr (0+16))
  2546  001740  6F65               	movwf	(_I2C1_Status+5)& (0+255),b
  2547  001742                     
  2548                           ; BSR set to: 0
  2549                           ;mcc_generated_files/i2c1_master.c: 194:         I2C1_Status.callbackPayload[I2C1_WRITE_
      +                          COLLISION] = ((void*)0);
  2550  001742  0E00               	movlw	0
  2551  001744  6F74               	movwf	(_I2C1_Status+20)& (0+255),b
  2552  001746  0E00               	movlw	0
  2553  001748  6F75               	movwf	(_I2C1_Status+21)& (0+255),b
  2554  00174A                     
  2555                           ; BSR set to: 0
  2556                           ;mcc_generated_files/i2c1_master.c: 195:         I2C1_Status.callbackTable[I2C1_ADDR_NAC
      +                          K]=I2C1_CallbackReturnStop;
  2557  00174A  0E74               	movlw	low _I2C1_CallbackReturnStop
  2558  00174C  6F66               	movwf	(_I2C1_Status+6)& (0+255),b
  2559  00174E  0E21               	movlw	high _I2C1_CallbackReturnStop
  2560  001750  6F67               	movwf	(_I2C1_Status+7)& (0+255),b
  2561  001752  0E00               	movlw	low (_I2C1_CallbackReturnStop shr (0+16))
  2562  001754  6F68               	movwf	(_I2C1_Status+8)& (0+255),b
  2563  001756                     
  2564                           ; BSR set to: 0
  2565                           ;mcc_generated_files/i2c1_master.c: 196:         I2C1_Status.callbackPayload[I2C1_ADDR_N
      +                          ACK] = ((void*)0);
  2566  001756  0E00               	movlw	0
  2567  001758  6F76               	movwf	(_I2C1_Status+22)& (0+255),b
  2568  00175A  0E00               	movlw	0
  2569  00175C  6F77               	movwf	(_I2C1_Status+23)& (0+255),b
  2570  00175E                     
  2571                           ; BSR set to: 0
  2572                           ;mcc_generated_files/i2c1_master.c: 197:         I2C1_Status.callbackTable[I2C1_DATA_NAC
      +                          K]=I2C1_CallbackReturnStop;
  2573  00175E  0E74               	movlw	low _I2C1_CallbackReturnStop
  2574  001760  6F69               	movwf	(_I2C1_Status+9)& (0+255),b
  2575  001762  0E21               	movlw	high _I2C1_CallbackReturnStop
  2576  001764  6F6A               	movwf	(_I2C1_Status+10)& (0+255),b
  2577  001766  0E00               	movlw	low (_I2C1_CallbackReturnStop shr (0+16))
  2578  001768  6F6B               	movwf	(_I2C1_Status+11)& (0+255),b
  2579  00176A                     
  2580                           ; BSR set to: 0
  2581                           ;mcc_generated_files/i2c1_master.c: 198:         I2C1_Status.callbackPayload[I2C1_DATA_N
      +                          ACK] = ((void*)0);
  2582  00176A  0E00               	movlw	0
  2583  00176C  6F78               	movwf	(_I2C1_Status+24)& (0+255),b
  2584  00176E  0E00               	movlw	0
  2585  001770  6F79               	movwf	(_I2C1_Status+25)& (0+255),b
  2586  001772                     
  2587                           ; BSR set to: 0
  2588                           ;mcc_generated_files/i2c1_master.c: 199:         I2C1_Status.callbackTable[I2C1_TIMEOUT]
      +                          =I2C1_CallbackReturnReset;
  2589  001772  0E70               	movlw	low _I2C1_CallbackReturnReset
  2590  001774  6F6C               	movwf	(_I2C1_Status+12)& (0+255),b
  2591  001776  0E21               	movlw	high _I2C1_CallbackReturnReset
  2592  001778  6F6D               	movwf	(_I2C1_Status+13)& (0+255),b
  2593  00177A  0E00               	movlw	low (_I2C1_CallbackReturnReset shr (0+16))
  2594  00177C  6F6E               	movwf	(_I2C1_Status+14)& (0+255),b
  2595  00177E                     
  2596                           ; BSR set to: 0
  2597                           ;mcc_generated_files/i2c1_master.c: 200:         I2C1_Status.callbackPayload[I2C1_TIMEOU
      +                          T] = ((void*)0);
  2598  00177E  0E00               	movlw	0
  2599  001780  6F7A               	movwf	(_I2C1_Status+26)& (0+255),b
  2600  001782  0E00               	movlw	0
  2601  001784  6F7B               	movwf	(_I2C1_Status+27)& (0+255),b
  2602  001786                     
  2603                           ; BSR set to: 0
  2604                           ;mcc_generated_files/i2c1_master.c: 202:         I2C1_MasterClearIrq();
  2605  001786  ECB1  F010         	call	_I2C1_MasterClearIrq	;wreg free
  2606  00178A                     
  2607                           ;mcc_generated_files/i2c1_master.c: 203:         I2C1_MasterOpen();
  2608  00178A  ECB2  F00F         	call	_I2C1_MasterOpen	;wreg free
  2609  00178E                     
  2610                           ;mcc_generated_files/i2c1_master.c: 204:         returnValue = I2C1_NOERR;
  2611  00178E  0E00               	movlw	0
  2612  001790  6E02               	movwf	I2C1_Open@returnValue^0,c
  2613  001792                     l3211:
  2614                           
  2615                           ;mcc_generated_files/i2c1_master.c: 206:     return returnValue;
  2616  001792  5002               	movf	I2C1_Open@returnValue^0,w,c
  2617  001794  0012               	return		;funcret
  2618  001796                     __end_of_I2C1_Open:
  2619                           	callstack 0
  2620                           
  2621 ;; *************** function _I2C1_MasterOpen *****************
  2622 ;; Defined at:
  2623 ;;		line 543 in file "mcc_generated_files/i2c1_master.c"
  2624 ;; Parameters:    Size  Location     Type
  2625 ;;		None
  2626 ;; Auto vars:     Size  Location     Type
  2627 ;;		None
  2628 ;; Return value:  Size  Location     Type
  2629 ;;                  1    wreg      _Bool 
  2630 ;; Registers used:
  2631 ;;		wreg, status,2
  2632 ;; Tracked objects:
  2633 ;;		On entry : 0/0
  2634 ;;		On exit  : 0/0
  2635 ;;		Unchanged: 0/0
  2636 ;; Data sizes:     COMRAM   BANK0   BANK1   BANK2   BANK3   BANK4   BANK5   BANK6   BANK7   BANK8   BANK9  BANK10  BANK1
      +1  BANK12  BANK14
  2637 ;;      Params:         0       0       0       0       0       0       0       0       0       0       0       0       
      +0       0       0
  2638 ;;      Locals:         0       0       0       0       0       0       0       0       0       0       0       0       
      +0       0       0
  2639 ;;      Temps:          0       0       0       0       0       0       0       0       0       0       0       0       
      +0       0       0
  2640 ;;      Totals:         0       0       0       0       0       0       0       0       0       0       0       0       
      +0       0       0
  2641 ;;Total ram usage:        0 bytes
  2642 ;; Hardware stack levels used: 1
  2643 ;; This function calls:
  2644 ;;		Nothing
  2645 ;; This function is called by:
  2646 ;;		_I2C1_Open
  2647 ;; This function uses a non-reentrant model
  2648 ;;
  2649                           
  2650                           	psect	text16
  2651  001F64                     __ptext16:
  2652                           	callstack 0
  2653  001F64                     _I2C1_MasterOpen:
  2654                           	callstack 28
  2655  001F64                     
  2656                           ;mcc_generated_files/i2c1_master.c: 545:     if(!SSP1CON1bits.SSPEN)
  2657  001F64  BA95               	btfsc	149,5,c	;volatile
  2658  001F66  EFB7  F00F         	goto	u1271
  2659  001F6A  EFB9  F00F         	goto	u1270
  2660  001F6E                     u1271:
  2661  001F6E  EFC2  F00F         	goto	l561
  2662  001F72                     u1270:
  2663  001F72                     
  2664                           ;mcc_generated_files/i2c1_master.c: 546:     {;mcc_generated_files/i2c1_master.c: 547:  
      +                                 SSP1STAT = 0x00;
  2665  001F72  0E00               	movlw	0
  2666  001F74  6E94               	movwf	148,c	;volatile
  2667                           
  2668                           ;mcc_generated_files/i2c1_master.c: 548:         SSP1CON1 = 0x08;
  2669  001F76  0E08               	movlw	8
  2670  001F78  6E95               	movwf	149,c	;volatile
  2671                           
  2672                           ;mcc_generated_files/i2c1_master.c: 549:         SSP1CON2 = 0x00;
  2673  001F7A  0E00               	movlw	0
  2674  001F7C  6E96               	movwf	150,c	;volatile
  2675                           
  2676                           ;mcc_generated_files/i2c1_master.c: 550:         SSP1ADD = 0x03;
  2677  001F7E  0E03               	movlw	3
  2678  001F80  6E92               	movwf	146,c	;volatile
  2679  001F82                     
  2680                           ;mcc_generated_files/i2c1_master.c: 551:         SSP1CON1bits.SSPEN = 1;
  2681  001F82  8A95               	bsf	149,5,c	;volatile
  2682  001F84                     l561:
  2683  001F84  0012               	return		;funcret
  2684  001F86                     __end_of_I2C1_MasterOpen:
  2685                           	callstack 0
  2686                           
  2687 ;; *************** function _I2C1_MasterWrite *****************
  2688 ;; Defined at:
  2689 ;;		line 251 in file "mcc_generated_files/i2c1_master.c"
  2690 ;; Parameters:    Size  Location     Type
  2691 ;;		None
  2692 ;; Auto vars:     Size  Location     Type
  2693 ;;		None
  2694 ;; Return value:  Size  Location     Type
  2695 ;;                  1    wreg      enum E355
  2696 ;; Registers used:
  2697 ;;		wreg, fsr2l, fsr2h, status,2, status,0, pcl, pclath, pclatu, tosl, tblptrl, tblptrh, tblptru, prodl, prodh, cstack
  2698 ;; Tracked objects:
  2699 ;;		On entry : 0/0
  2700 ;;		On exit  : 0/0
  2701 ;;		Unchanged: 0/0
  2702 ;; Data sizes:     COMRAM   BANK0   BANK1   BANK2   BANK3   BANK4   BANK5   BANK6   BANK7   BANK8   BANK9  BANK10  BANK1
      +1  BANK12  BANK14
  2703 ;;      Params:         0       0       0       0       0       0       0       0       0       0       0       0       
      +0       0       0
  2704 ;;      Locals:         0       0       0       0       0       0       0       0       0       0       0       0       
      +0       0       0
  2705 ;;      Temps:          0       0       0       0       0       0       0       0       0       0       0       0       
      +0       0       0
  2706 ;;      Totals:         0       0       0       0       0       0       0       0       0       0       0       0       
      +0       0       0
  2707 ;;Total ram usage:        0 bytes
  2708 ;; Hardware stack levels used: 1
  2709 ;; Hardware stack levels required when called: 7
  2710 ;; This function calls:
  2711 ;;		_I2C1_MasterOperation
  2712 ;; This function is called by:
  2713 ;;		_i2c_read2ByteRegister
  2714 ;;		_i2c_write1ByteRegister
  2715 ;;		_i2c_writeNBytes
  2716 ;;		_i2c_read1ByteRegister
  2717 ;;		_i2c_write2ByteRegister
  2718 ;;		_i2c_readDataBlock
  2719 ;;		_I2C1_Read1ByteRegister
  2720 ;;		_I2C1_Read2ByteRegister
  2721 ;;		_I2C1_Write1ByteRegister
  2722 ;;		_I2C1_Write2ByteRegister
  2723 ;;		_I2C1_WriteNBytes
  2724 ;;		_I2C1_ReadDataBlock
  2725 ;; This function uses a non-reentrant model
  2726 ;;
  2727                           
  2728                           	psect	text17
  2729  002102                     __ptext17:
  2730                           	callstack 0
  2731  002102                     _I2C1_MasterWrite:
  2732                           	callstack 22
  2733  002102                     
  2734                           ;mcc_generated_files/i2c1_master.c: 253:     return I2C1_MasterOperation(0);;	Return val
      +                          ue of _I2C1_MasterWrite is never used
  2735  002102  0E00               	movlw	0
  2736  002104  EC36  F00E         	call	_I2C1_MasterOperation
  2737  002108  0012               	return		;funcret
  2738  00210A                     __end_of_I2C1_MasterWrite:
  2739                           	callstack 0
  2740                           
  2741 ;; *************** function _I2C1_MasterOperation *****************
  2742 ;; Defined at:
  2743 ;;		line 224 in file "mcc_generated_files/i2c1_master.c"
  2744 ;; Parameters:    Size  Location     Type
  2745 ;;  read            1    wreg     _Bool 
  2746 ;; Auto vars:     Size  Location     Type
  2747 ;;  read            1   15[COMRAM] _Bool 
  2748 ;;  returnValue     1   16[COMRAM] enum E355
  2749 ;; Return value:  Size  Location     Type
  2750 ;;                  1    wreg      enum E355
  2751 ;; Registers used:
  2752 ;;		wreg, fsr2l, fsr2h, status,2, status,0, pcl, pclath, pclatu, tosl, tblptrl, tblptrh, tblptru, prodl, prodh, cstack
  2753 ;; Tracked objects:
  2754 ;;		On entry : 0/0
  2755 ;;		On exit  : 0/0
  2756 ;;		Unchanged: 0/0
  2757 ;; Data sizes:     COMRAM   BANK0   BANK1   BANK2   BANK3   BANK4   BANK5   BANK6   BANK7   BANK8   BANK9  BANK10  BANK1
      +1  BANK12  BANK14
  2758 ;;      Params:         0       0       0       0       0       0       0       0       0       0       0       0       
      +0       0       0
  2759 ;;      Locals:         2       0       0       0       0       0       0       0       0       0       0       0       
      +0       0       0
  2760 ;;      Temps:          0       0       0       0       0       0       0       0       0       0       0       0       
      +0       0       0
  2761 ;;      Totals:         2       0       0       0       0       0       0       0       0       0       0       0       
      +0       0       0
  2762 ;;Total ram usage:        2 bytes
  2763 ;; Hardware stack levels used: 1
  2764 ;; Hardware stack levels required when called: 6
  2765 ;; This function calls:
  2766 ;;		_I2C1_MasterStart
  2767 ;;		_I2C1_Poller
  2768 ;; This function is called by:
  2769 ;;		_I2C1_MasterWrite
  2770 ;;		_I2C1_MasterRead
  2771 ;; This function uses a non-reentrant model
  2772 ;;
  2773                           
  2774                           	psect	text18
  2775  001C6C                     __ptext18:
  2776                           	callstack 0
  2777  001C6C                     _I2C1_MasterOperation:
  2778                           	callstack 22
  2779                           
  2780                           ;incstack = 0
  2781                           ;I2C1_MasterOperation@read stored from wreg
  2782  001C6C  6E10               	movwf	I2C1_MasterOperation@read^0,c
  2783  001C6E                     
  2784                           ;mcc_generated_files/i2c1_master.c: 224: i2c1_error_t I2C1_MasterOperation(_Bool read);m
      +                          cc_generated_files/i2c1_master.c: 225: {;mcc_generated_files/i2c1_master.c: 226:     i2c
      +                          1_error_t returnValue = I2C1_BUSY;
  2785  001C6E  0E01               	movlw	1
  2786  001C70  6E11               	movwf	I2C1_MasterOperation@returnValue^0,c
  2787  001C72                     
  2788                           ;mcc_generated_files/i2c1_master.c: 227:     if(!I2C1_Status.busy)
  2789  001C72  0100               	movlb	0	; () banked
  2790  001C74  B389               	btfsc	(_I2C1_Status+41)& (0+255),1,b
  2791  001C76  EF3F  F00E         	goto	u1281
  2792  001C7A  EF41  F00E         	goto	u1280
  2793  001C7E                     u1281:
  2794  001C7E  EF56  F00E         	goto	l3117
  2795  001C82                     u1280:
  2796  001C82                     
  2797                           ; BSR set to: 0
  2798                           ;mcc_generated_files/i2c1_master.c: 228:     {;mcc_generated_files/i2c1_master.c: 229:  
      +                                 I2C1_Status.busy = 1;
  2799  001C82  8389               	bsf	(_I2C1_Status+41)& (0+255),1,b
  2800  001C84                     
  2801                           ; BSR set to: 0
  2802                           ;mcc_generated_files/i2c1_master.c: 230:         returnValue = I2C1_NOERR;
  2803  001C84  0E00               	movlw	0
  2804  001C86  6E11               	movwf	I2C1_MasterOperation@returnValue^0,c
  2805  001C88                     
  2806                           ; BSR set to: 0
  2807                           ;mcc_generated_files/i2c1_master.c: 232:         if(read)
  2808  001C88  5010               	movf	I2C1_MasterOperation@read^0,w,c
  2809  001C8A  B4D8               	btfsc	status,2,c
  2810  001C8C  EF4A  F00E         	goto	u1291
  2811  001C90  EF4C  F00E         	goto	u1290
  2812  001C94                     u1291:
  2813  001C94  EF50  F00E         	goto	l3111
  2814  001C98                     u1290:
  2815  001C98                     
  2816                           ; BSR set to: 0
  2817                           ;mcc_generated_files/i2c1_master.c: 233:         {;mcc_generated_files/i2c1_master.c: 23
      +                          4:             I2C1_Status.state = I2C1_SEND_ADR_READ;
  2818  001C98  0E01               	movlw	1
  2819  001C9A  6F87               	movwf	(_I2C1_Status+39)& (0+255),b
  2820                           
  2821                           ;mcc_generated_files/i2c1_master.c: 235:         }
  2822  001C9C  EF52  F00E         	goto	l3113
  2823  001CA0                     l3111:
  2824                           
  2825                           ; BSR set to: 0
  2826                           ;mcc_generated_files/i2c1_master.c: 237:         {;mcc_generated_files/i2c1_master.c: 23
      +                          8:             I2C1_Status.state = I2C1_SEND_ADR_WRITE;
  2827  001CA0  0E02               	movlw	2
  2828  001CA2  6F87               	movwf	(_I2C1_Status+39)& (0+255),b
  2829  001CA4                     l3113:
  2830                           
  2831                           ; BSR set to: 0
  2832                           ;mcc_generated_files/i2c1_master.c: 240:         I2C1_MasterStart();
  2833  001CA4  ECC0  F010         	call	_I2C1_MasterStart	;wreg free
  2834  001CA8                     
  2835                           ;mcc_generated_files/i2c1_master.c: 241:         I2C1_Poller();
  2836  001CA8  ECC3  F00F         	call	_I2C1_Poller	;wreg free
  2837  001CAC                     l3117:
  2838                           
  2839                           ;mcc_generated_files/i2c1_master.c: 243:     return returnValue;
  2840  001CAC  5011               	movf	I2C1_MasterOperation@returnValue^0,w,c
  2841  001CAE  0012               	return		;funcret
  2842  001CB0                     __end_of_I2C1_MasterOperation:
  2843                           	callstack 0
  2844                           
  2845 ;; *************** function _I2C1_Poller *****************
  2846 ;; Defined at:
  2847 ;;		line 312 in file "mcc_generated_files/i2c1_master.c"
  2848 ;; Parameters:    Size  Location     Type
  2849 ;;		None
  2850 ;; Auto vars:     Size  Location     Type
  2851 ;;		None
  2852 ;; Return value:  Size  Location     Type
  2853 ;;                  1    wreg      void 
  2854 ;; Registers used:
  2855 ;;		wreg, fsr2l, fsr2h, status,2, status,0, pcl, pclath, pclatu, tosl, tblptrl, tblptrh, tblptru, prodl, prodh, cstack
  2856 ;; Tracked objects:
  2857 ;;		On entry : 0/0
  2858 ;;		On exit  : 0/0
  2859 ;;		Unchanged: 0/0
  2860 ;; Data sizes:     COMRAM   BANK0   BANK1   BANK2   BANK3   BANK4   BANK5   BANK6   BANK7   BANK8   BANK9  BANK10  BANK1
      +1  BANK12  BANK14
  2861 ;;      Params:         0       0       0       0       0       0       0       0       0       0       0       0       
      +0       0       0
  2862 ;;      Locals:         0       0       0       0       0       0       0       0       0       0       0       0       
      +0       0       0
  2863 ;;      Temps:          0       0       0       0       0       0       0       0       0       0       0       0       
      +0       0       0
  2864 ;;      Totals:         0       0       0       0       0       0       0       0       0       0       0       0       
      +0       0       0
  2865 ;;Total ram usage:        0 bytes
  2866 ;; Hardware stack levels used: 1
  2867 ;; Hardware stack levels required when called: 5
  2868 ;; This function calls:
  2869 ;;		_I2C1_MasterFsm
  2870 ;;		_I2C1_MasterWaitForEvent
  2871 ;; This function is called by:
  2872 ;;		_I2C1_MasterOperation
  2873 ;; This function uses a non-reentrant model
  2874 ;;
  2875                           
  2876                           	psect	text19
  2877  001F86                     __ptext19:
  2878                           	callstack 0
  2879  001F86                     _I2C1_Poller:
  2880                           	callstack 22
  2881  001F86                     
  2882                           ;mcc_generated_files/i2c1_master.c: 314:     while(I2C1_Status.busy)
  2883  001F86  EFC9  F00F         	goto	l3049
  2884  001F8A                     l3045:
  2885                           
  2886                           ; BSR set to: 0
  2887                           ;mcc_generated_files/i2c1_master.c: 315:     {;mcc_generated_files/i2c1_master.c: 316:  
      +                                 I2C1_MasterWaitForEvent();
  2888  001F8A  EC3C  F010         	call	_I2C1_MasterWaitForEvent	;wreg free
  2889  001F8E                     
  2890                           ;mcc_generated_files/i2c1_master.c: 317:         I2C1_MasterFsm();
  2891  001F8E  EC25  F00D         	call	_I2C1_MasterFsm	;wreg free
  2892  001F92                     l3049:
  2893                           
  2894                           ;mcc_generated_files/i2c1_master.c: 314:     while(I2C1_Status.busy)
  2895  001F92  0100               	movlb	0	; () banked
  2896  001F94  B389               	btfsc	(_I2C1_Status+41)& (0+255),1,b
  2897  001F96  EFCF  F00F         	goto	u1191
  2898  001F9A  EFD1  F00F         	goto	u1190
  2899  001F9E                     u1191:
  2900  001F9E  EFC5  F00F         	goto	l3045
  2901  001FA2                     u1190:
  2902  001FA2                     
  2903                           ; BSR set to: 0
  2904  001FA2  0012               	return		;funcret
  2905  001FA4                     __end_of_I2C1_Poller:
  2906                           	callstack 0
  2907                           
  2908 ;; *************** function _I2C1_MasterWaitForEvent *****************
  2909 ;; Defined at:
  2910 ;;		line 650 in file "mcc_generated_files/i2c1_master.c"
  2911 ;; Parameters:    Size  Location     Type
  2912 ;;		None
  2913 ;; Auto vars:     Size  Location     Type
  2914 ;;		None
  2915 ;; Return value:  Size  Location     Type
  2916 ;;                  1    wreg      void 
  2917 ;; Registers used:
  2918 ;;		None
  2919 ;; Tracked objects:
  2920 ;;		On entry : 0/0
  2921 ;;		On exit  : 0/0
  2922 ;;		Unchanged: 0/0
  2923 ;; Data sizes:     COMRAM   BANK0   BANK1   BANK2   BANK3   BANK4   BANK5   BANK6   BANK7   BANK8   BANK9  BANK10  BANK1
      +1  BANK12  BANK14
  2924 ;;      Params:         0       0       0       0       0       0       0       0       0       0       0       0       
      +0       0       0
  2925 ;;      Locals:         0       0       0       0       0       0       0       0       0       0       0       0       
      +0       0       0
  2926 ;;      Temps:          0       0       0       0       0       0       0       0       0       0       0       0       
      +0       0       0
  2927 ;;      Totals:         0       0       0       0       0       0       0       0       0       0       0       0       
      +0       0       0
  2928 ;;Total ram usage:        0 bytes
  2929 ;; Hardware stack levels used: 1
  2930 ;; This function calls:
  2931 ;;		Nothing
  2932 ;; This function is called by:
  2933 ;;		_I2C1_Poller
  2934 ;; This function uses a non-reentrant model
  2935 ;;
  2936                           
  2937                           	psect	text20
  2938  002078                     __ptext20:
  2939                           	callstack 0
  2940  002078                     _I2C1_MasterWaitForEvent:
  2941                           	callstack 26
  2942  002078                     l618:
  2943                           
  2944                           ;mcc_generated_files/i2c1_master.c: 653:     {;mcc_generated_files/i2c1_master.c: 654:  
      +                                 if(PIR3bits.SSP1IF)
  2945  002078  010E               	movlb	14	; () banked
  2946  00207A  A1C8               	btfss	200,0,b	;volatile
  2947  00207C  EF42  F010         	goto	u1041
  2948  002080  EF44  F010         	goto	u1040
  2949  002084                     u1041:
  2950  002084  EF3C  F010         	goto	l618
  2951  002088                     u1040:
  2952  002088                     
  2953                           ; BSR set to: 14
  2954  002088  0012               	return		;funcret
  2955  00208A                     __end_of_I2C1_MasterWaitForEvent:
  2956                           	callstack 0
  2957                           
  2958 ;; *************** function _I2C1_MasterFsm *****************
  2959 ;; Defined at:
  2960 ;;		line 321 in file "mcc_generated_files/i2c1_master.c"
  2961 ;; Parameters:    Size  Location     Type
  2962 ;;		None
  2963 ;; Auto vars:     Size  Location     Type
  2964 ;;		None
  2965 ;; Return value:  Size  Location     Type
  2966 ;;                  1    wreg      void 
  2967 ;; Registers used:
  2968 ;;		wreg, fsr2l, fsr2h, status,2, status,0, pcl, pclath, pclatu, tosl, tblptrl, tblptrh, tblptru, prodl, prodh, cstack
  2969 ;; Tracked objects:
  2970 ;;		On entry : 0/0
  2971 ;;		On exit  : 0/0
  2972 ;;		Unchanged: 0/0
  2973 ;; Data sizes:     COMRAM   BANK0   BANK1   BANK2   BANK3   BANK4   BANK5   BANK6   BANK7   BANK8   BANK9  BANK10  BANK1
      +1  BANK12  BANK14
  2974 ;;      Params:         0       0       0       0       0       0       0       0       0       0       0       0       
      +0       0       0
  2975 ;;      Locals:         0       0       0       0       0       0       0       0       0       0       0       0       
      +0       0       0
  2976 ;;      Temps:          0       0       0       0       0       0       0       0       0       0       0       0       
      +0       0       0
  2977 ;;      Totals:         0       0       0       0       0       0       0       0       0       0       0       0       
      +0       0       0
  2978 ;;Total ram usage:        0 bytes
  2979 ;; Hardware stack levels used: 1
  2980 ;; Hardware stack levels required when called: 4
  2981 ;; This function calls:
  2982 ;;		_I2C1_DO_ADDRESS_NACK
  2983 ;;		_I2C1_DO_IDLE
  2984 ;;		_I2C1_DO_RCEN
  2985 ;;		_I2C1_DO_RESET
  2986 ;;		_I2C1_DO_RX
  2987 ;;		_I2C1_DO_RX_ACK
  2988 ;;		_I2C1_DO_RX_NACK_RESTART
  2989 ;;		_I2C1_DO_RX_NACK_STOP
  2990 ;;		_I2C1_DO_SEND_ADR_READ
  2991 ;;		_I2C1_DO_SEND_ADR_WRITE
  2992 ;;		_I2C1_DO_SEND_RESTART
  2993 ;;		_I2C1_DO_SEND_RESTART_READ
  2994 ;;		_I2C1_DO_SEND_RESTART_WRITE
  2995 ;;		_I2C1_DO_SEND_STOP
  2996 ;;		_I2C1_DO_TX
  2997 ;;		_I2C1_DO_TX_EMPTY
  2998 ;;		_I2C1_MasterClearIrq
  2999 ;;		_I2C1_MasterIsNack
  3000 ;; This function is called by:
  3001 ;;		_I2C1_Poller
  3002 ;; This function uses a non-reentrant model
  3003 ;;
  3004                           
  3005                           	psect	text21
  3006  001A4A                     __ptext21:
  3007                           	callstack 0
  3008  001A4A                     _I2C1_MasterFsm:
  3009                           	callstack 22
  3010  001A4A                     
  3011                           ;mcc_generated_files/i2c1_master.c: 323:     I2C1_MasterClearIrq();
  3012  001A4A  ECB1  F010         	call	_I2C1_MasterClearIrq	;wreg free
  3013  001A4E                     
  3014                           ;mcc_generated_files/i2c1_master.c: 325:     if(I2C1_Status.addressNackCheck && I2C1_Mas
      +                          terIsNack())
  3015  001A4E  0100               	movlb	0	; () banked
  3016  001A50  A189               	btfss	(_I2C1_Status+41)& (0+255),0,b
  3017  001A52  EF2D  F00D         	goto	u1051
  3018  001A56  EF2F  F00D         	goto	u1050
  3019  001A5A                     u1051:
  3020  001A5A  EF3C  F00D         	goto	l2979
  3021  001A5E                     u1050:
  3022  001A5E                     
  3023                           ; BSR set to: 0
  3024  001A5E  EC1F  F010         	call	_I2C1_MasterIsNack	;wreg free
  3025  001A62  0900               	iorlw	0
  3026  001A64  B4D8               	btfsc	status,2,c
  3027  001A66  EF37  F00D         	goto	u1061
  3028  001A6A  EF39  F00D         	goto	u1060
  3029  001A6E                     u1061:
  3030  001A6E  EF3C  F00D         	goto	l2979
  3031  001A72                     u1060:
  3032  001A72                     
  3033                           ;mcc_generated_files/i2c1_master.c: 326:     {;mcc_generated_files/i2c1_master.c: 327:  
      +                                 I2C1_Status.state = I2C1_ADDRESS_NACK;
  3034  001A72  0E0F               	movlw	15
  3035  001A74  0100               	movlb	0	; () banked
  3036  001A76  6F87               	movwf	(_I2C1_Status+39)& (0+255),b
  3037  001A78                     l2979:
  3038                           
  3039                           ;mcc_generated_files/i2c1_master.c: 329:     I2C1_Status.state = i2c1_fsmStateTable[I2C1
      +                          _Status.state]();
  3040  001A78  0100               	movlb	0	; () banked
  3041  001A7A  5187               	movf	(_I2C1_Status+39)& (0+255),w,b
  3042  001A7C  0D03               	mullw	3
  3043  001A7E  0E01               	movlw	low _i2c1_fsmStateTable
  3044  001A80  24F3               	addwf	243,w,c
  3045  001A82  6EF6               	movwf	tblptrl,c
  3046  001A84  0E0F               	movlw	high _i2c1_fsmStateTable
  3047  001A86  20F4               	addwfc	244,w,c
  3048  001A88  6EF7               	movwf	tblptrh,c
  3049  001A8A                     	if	1	;There are 3 active tblptr bytes
  3050  001A8A  6AF8               	clrf	tblptru,c
  3051  001A8C  0E00               	movlw	low (__mediumconst shr (0+16))
  3052  001A8E  22F8               	addwfc	tblptru,f,c
  3053  001A90                     	endif
  3054  001A90  D802               	call	u1078
  3055  001A92  EF58  F00D         	goto	u1079
  3056  001A96                     u1078:
  3057  001A96  0005               	push	
  3058  001A98  6EFA               	movwf	pclath,c
  3059  001A9A  0009               	tblrd		*+
  3060  001A9C  50F5               	movf	tablat,w,c
  3061  001A9E  6EFD               	movwf	tosl,c
  3062  001AA0  0009               	tblrd		*+
  3063  001AA2  50F5               	movf	tablat,w,c
  3064  001AA4  6EFE               	movwf	tosh,c
  3065  001AA6  0009               	tblrd		*+
  3066  001AA8  50F5               	movf	tablat,w,c
  3067  001AAA  6EFF               	movwf	tosu,c
  3068  001AAC  50FA               	movf	pclath,w,c
  3069  001AAE  0012               	return		;indir
  3070  001AB0                     u1079:
  3071  001AB0  0100               	movlb	0	; () banked
  3072  001AB2  6F87               	movwf	(_I2C1_Status+39)& (0+255),b
  3073  001AB4                     
  3074                           ; BSR set to: 0
  3075  001AB4  0012               	return		;funcret
  3076  001AB6                     __end_of_I2C1_MasterFsm:
  3077                           	callstack 0
  3078                           
  3079 ;; *************** function _I2C1_DO_ADDRESS_NACK *****************
  3080 ;; Defined at:
  3081 ;;		line 500 in file "mcc_generated_files/i2c1_master.c"
  3082 ;; Parameters:    Size  Location     Type
  3083 ;;		None
  3084 ;; Auto vars:     Size  Location     Type
  3085 ;;		None
  3086 ;; Return value:  Size  Location     Type
  3087 ;;                  1    wreg      enum E13076
  3088 ;; Registers used:
  3089 ;;		wreg, fsr2l, fsr2h, status,2, status,0, pcl, pclath, pclatu, tosl, prodl, prodh, cstack
  3090 ;; Tracked objects:
  3091 ;;		On entry : 0/0
  3092 ;;		On exit  : 0/0
  3093 ;;		Unchanged: 0/0
  3094 ;; Data sizes:     COMRAM   BANK0   BANK1   BANK2   BANK3   BANK4   BANK5   BANK6   BANK7   BANK8   BANK9  BANK10  BANK1
      +1  BANK12  BANK14
  3095 ;;      Params:         0       0       0       0       0       0       0       0       0       0       0       0       
      +0       0       0
  3096 ;;      Locals:         0       0       0       0       0       0       0       0       0       0       0       0       
      +0       0       0
  3097 ;;      Temps:          2       0       0       0       0       0       0       0       0       0       0       0       
      +0       0       0
  3098 ;;      Totals:         2       0       0       0       0       0       0       0       0       0       0       0       
      +0       0       0
  3099 ;;Total ram usage:        2 bytes
  3100 ;; Hardware stack levels used: 1
  3101 ;; Hardware stack levels required when called: 3
  3102 ;; This function calls:
  3103 ;;		Absolute function
  3104 ;;		_I2C1_CallbackReturnReset
  3105 ;;		_I2C1_CallbackReturnStop
  3106 ;;		_I2C1_DO_SEND_RESTART
  3107 ;;		_I2C1_DO_SEND_STOP
  3108 ;;		_rd1RegCompleteHandler
  3109 ;;		_rd1RegCompleteHandler@i2c1_master_example$F145
  3110 ;;		_rd2RegCompleteHandler
  3111 ;;		_rd2RegCompleteHandler@i2c1_master_example$F156
  3112 ;;		_rdBlkRegCompleteHandler
  3113 ;;		_rdBlkRegCompleteHandler@i2c1_master_example$F179
  3114 ;;		_wr1RegCompleteHandler
  3115 ;;		_wr1RegCompleteHandler@i2c1_master_example$F162
  3116 ;;		_wr2RegCompleteHandler
  3117 ;;		_wr2RegCompleteHandler@i2c1_master_example$F168
  3118 ;; This function is called by:
  3119 ;;		_I2C1_MasterFsm
  3120 ;; This function uses a non-reentrant model
  3121 ;;
  3122                           
  3123                           	psect	text22
  3124  001AB6                     __ptext22:
  3125                           	callstack 0
  3126  001AB6                     _I2C1_DO_ADDRESS_NACK:
  3127                           	callstack 22
  3128  001AB6                     
  3129                           ;mcc_generated_files/i2c1_master.c: 502:     I2C1_Status.addressNackCheck = 0;
  3130  001AB6  0100               	movlb	0	; () banked
  3131  001AB8  9189               	bcf	(_I2C1_Status+41)& (0+255),0,b
  3132  001ABA                     
  3133                           ; BSR set to: 0
  3134                           ;mcc_generated_files/i2c1_master.c: 503:     I2C1_Status.error = I2C1_FAIL;
  3135  001ABA  0E02               	movlw	2
  3136  001ABC  6F88               	movwf	(_I2C1_Status+40)& (0+255),b
  3137                           
  3138                           ;mcc_generated_files/i2c1_master.c: 504:     switch(I2C1_Status.callbackTable[I2C1_ADDR_
      +                          NACK](I2C1_Status.callbackPayload[I2C1_ADDR_NACK]))
  3139  001ABE  EF69  F00D         	goto	l2945
  3140  001AC2                     l2935:
  3141                           
  3142                           ;mcc_generated_files/i2c1_master.c: 508:             return I2C1_DO_SEND_RESTART();
  3143  001AC2  EC95  F010         	call	_I2C1_DO_SEND_RESTART	;wreg free
  3144  001AC6  EF90  F00D         	goto	l540
  3145  001ACA                     l2939:
  3146                           
  3147                           ;mcc_generated_files/i2c1_master.c: 510:             return I2C1_DO_SEND_STOP();
  3148  001ACA  EC91  F010         	call	_I2C1_DO_SEND_STOP	;wreg free
  3149  001ACE  EF90  F00D         	goto	l540
  3150  001AD2                     l2945:
  3151                           
  3152                           ; BSR set to: 0
  3153  001AD2  C076  F00C         	movff	_I2C1_Status+22,I2C1_CallbackReturnReset@funPtr
  3154  001AD6  C077  F00D         	movff	_I2C1_Status+23,I2C1_CallbackReturnReset@funPtr+1
  3155  001ADA  EE20  F066         	lfsr	2,_I2C1_Status+6
  3156  001ADE  D802               	call	u1018
  3157  001AE0  EF7C  F00D         	goto	u1019
  3158  001AE4                     u1018:
  3159  001AE4  0005               	push	
  3160  001AE6  6EFA               	movwf	pclath,c
  3161  001AE8  50DE               	movf	postinc2,w,c
  3162  001AEA  6EFD               	movwf	tosl,c
  3163  001AEC  50DE               	movf	postinc2,w,c
  3164  001AEE  6EFE               	movwf	tosh,c
  3165  001AF0  50DE               	movf	postinc2,w,c
  3166  001AF2  6EFF               	movwf	tosu,c
  3167  001AF4  50FA               	movf	pclath,w,c
  3168  001AF6  0012               	return		;indir
  3169  001AF8                     u1019:
  3170  001AF8  6E0E               	movwf	??_I2C1_DO_ADDRESS_NACK^0,c
  3171  001AFA  6A0F               	clrf	(??_I2C1_DO_ADDRESS_NACK+1)^0,c
  3172                           
  3173                           ; Switch on 2 bytes has been partitioned into a top level switch of size 1, and 1 sub-sw
      +                          itches
  3174                           ; Switch size 1, requested type "simple"
  3175                           ; Number of cases is 1, Range of values is 0 to 0
  3176                           ; switch strategies available:
  3177                           ; Name         Instructions Cycles
  3178                           ; simple_byte            4     3 (average)
  3179                           ;	Chosen strategy is simple_byte
  3180  001AFC  500F               	movf	(??_I2C1_DO_ADDRESS_NACK+1)^0,w,c
  3181  001AFE  0A00               	xorlw	0	; case 0
  3182  001B00  B4D8               	btfsc	status,2,c
  3183  001B02  EF85  F00D         	goto	l3623
  3184  001B06  EF65  F00D         	goto	l2939
  3185  001B0A                     l3623:
  3186                           
  3187                           ; Switch size 1, requested type "simple"
  3188                           ; Number of cases is 2, Range of values is 2 to 3
  3189                           ; switch strategies available:
  3190                           ; Name         Instructions Cycles
  3191                           ; simple_byte            7     4 (average)
  3192                           ;	Chosen strategy is simple_byte
  3193  001B0A  500E               	movf	??_I2C1_DO_ADDRESS_NACK^0,w,c
  3194  001B0C  0A02               	xorlw	2	; case 2
  3195  001B0E  B4D8               	btfsc	status,2,c
  3196  001B10  EF61  F00D         	goto	l2935
  3197  001B14  0A01               	xorlw	1	; case 3
  3198  001B16  B4D8               	btfsc	status,2,c
  3199  001B18  EF61  F00D         	goto	l2935
  3200  001B1C  EF65  F00D         	goto	l2939
  3201  001B20                     l540:
  3202  001B20  0012               	return		;funcret
  3203  001B22                     __end_of_I2C1_DO_ADDRESS_NACK:
  3204                           	callstack 0
  3205                           
  3206 ;; *************** function _I2C1_DO_RESET *****************
  3207 ;; Defined at:
  3208 ;;		line 494 in file "mcc_generated_files/i2c1_master.c"
  3209 ;; Parameters:    Size  Location     Type
  3210 ;;		None
  3211 ;; Auto vars:     Size  Location     Type
  3212 ;;		None
  3213 ;; Return value:  Size  Location     Type
  3214 ;;                  1    wreg      enum E13076
  3215 ;; Registers used:
  3216 ;;		wreg, status,2
  3217 ;; Tracked objects:
  3218 ;;		On entry : 0/0
  3219 ;;		On exit  : 0/0
  3220 ;;		Unchanged: 0/0
  3221 ;; Data sizes:     COMRAM   BANK0   BANK1   BANK2   BANK3   BANK4   BANK5   BANK6   BANK7   BANK8   BANK9  BANK10  BANK1
      +1  BANK12  BANK14
  3222 ;;      Params:         0       0       0       0       0       0       0       0       0       0       0       0       
      +0       0       0
  3223 ;;      Locals:         0       0       0       0       0       0       0       0       0       0       0       0       
      +0       0       0
  3224 ;;      Temps:          0       0       0       0       0       0       0       0       0       0       0       0       
      +0       0       0
  3225 ;;      Totals:         0       0       0       0       0       0       0       0       0       0       0       0       
      +0       0       0
  3226 ;;Total ram usage:        0 bytes
  3227 ;; Hardware stack levels used: 1
  3228 ;; This function calls:
  3229 ;;		Nothing
  3230 ;; This function is called by:
  3231 ;;		_I2C1_MasterFsm
  3232 ;; This function uses a non-reentrant model
  3233 ;;
  3234                           
  3235                           	psect	text23
  3236  0020D4                     __ptext23:
  3237                           	callstack 0
  3238  0020D4                     _I2C1_DO_RESET:
  3239                           	callstack 25
  3240  0020D4                     
  3241                           ;mcc_generated_files/i2c1_master.c: 496:     I2C1_Status.busy = 0;
  3242  0020D4  0100               	movlb	0	; () banked
  3243  0020D6  9389               	bcf	(_I2C1_Status+41)& (0+255),1,b
  3244  0020D8                     
  3245                           ; BSR set to: 0
  3246                           ;mcc_generated_files/i2c1_master.c: 497:     I2C1_Status.error = I2C1_NOERR;
  3247  0020D8  0E00               	movlw	0
  3248  0020DA  6F88               	movwf	(_I2C1_Status+40)& (0+255),b
  3249  0020DC                     
  3250                           ; BSR set to: 0
  3251                           ;mcc_generated_files/i2c1_master.c: 498:     return I2C1_RESET;
  3252  0020DC  0E0E               	movlw	14
  3253  0020DE                     
  3254                           ; BSR set to: 0
  3255  0020DE  0012               	return		;funcret
  3256  0020E0                     __end_of_I2C1_DO_RESET:
  3257                           	callstack 0
  3258                           
  3259 ;; *************** function _I2C1_DO_RX_NACK_RESTART *****************
  3260 ;; Defined at:
  3261 ;;		line 488 in file "mcc_generated_files/i2c1_master.c"
  3262 ;; Parameters:    Size  Location     Type
  3263 ;;		None
  3264 ;; Auto vars:     Size  Location     Type
  3265 ;;		None
  3266 ;; Return value:  Size  Location     Type
  3267 ;;                  1    wreg      enum E13076
  3268 ;; Registers used:
  3269 ;;		wreg, cstack
  3270 ;; Tracked objects:
  3271 ;;		On entry : 0/0
  3272 ;;		On exit  : 0/0
  3273 ;;		Unchanged: 0/0
  3274 ;; Data sizes:     COMRAM   BANK0   BANK1   BANK2   BANK3   BANK4   BANK5   BANK6   BANK7   BANK8   BANK9  BANK10  BANK1
      +1  BANK12  BANK14
  3275 ;;      Params:         0       0       0       0       0       0       0       0       0       0       0       0       
      +0       0       0
  3276 ;;      Locals:         0       0       0       0       0       0       0       0       0       0       0       0       
      +0       0       0
  3277 ;;      Temps:          0       0       0       0       0       0       0       0       0       0       0       0       
      +0       0       0
  3278 ;;      Totals:         0       0       0       0       0       0       0       0       0       0       0       0       
      +0       0       0
  3279 ;;Total ram usage:        0 bytes
  3280 ;; Hardware stack levels used: 1
  3281 ;; Hardware stack levels required when called: 1
  3282 ;; This function calls:
  3283 ;;		_I2C1_MasterSendNack
  3284 ;; This function is called by:
  3285 ;;		_I2C1_DO_RX
  3286 ;;		_I2C1_MasterFsm
  3287 ;; This function uses a non-reentrant model
  3288 ;;
  3289                           
  3290                           	psect	text24
  3291  00210A                     __ptext24:
  3292                           	callstack 0
  3293  00210A                     _I2C1_DO_RX_NACK_RESTART:
  3294                           	callstack 24
  3295  00210A                     
  3296                           ;mcc_generated_files/i2c1_master.c: 490:     I2C1_MasterSendNack();
  3297  00210A  ECAB  F010         	call	_I2C1_MasterSendNack	;wreg free
  3298  00210E                     
  3299                           ;mcc_generated_files/i2c1_master.c: 491:     return I2C1_SEND_RESTART;
  3300  00210E  0E09               	movlw	9
  3301  002110  0012               	return		;funcret
  3302  002112                     __end_of_I2C1_DO_RX_NACK_RESTART:
  3303                           	callstack 0
  3304                           
  3305 ;; *************** function _I2C1_DO_RX_NACK_STOP *****************
  3306 ;; Defined at:
  3307 ;;		line 482 in file "mcc_generated_files/i2c1_master.c"
  3308 ;; Parameters:    Size  Location     Type
  3309 ;;		None
  3310 ;; Auto vars:     Size  Location     Type
  3311 ;;		None
  3312 ;; Return value:  Size  Location     Type
  3313 ;;                  1    wreg      enum E13076
  3314 ;; Registers used:
  3315 ;;		wreg, cstack
  3316 ;; Tracked objects:
  3317 ;;		On entry : 0/0
  3318 ;;		On exit  : 0/0
  3319 ;;		Unchanged: 0/0
  3320 ;; Data sizes:     COMRAM   BANK0   BANK1   BANK2   BANK3   BANK4   BANK5   BANK6   BANK7   BANK8   BANK9  BANK10  BANK1
      +1  BANK12  BANK14
  3321 ;;      Params:         0       0       0       0       0       0       0       0       0       0       0       0       
      +0       0       0
  3322 ;;      Locals:         0       0       0       0       0       0       0       0       0       0       0       0       
      +0       0       0
  3323 ;;      Temps:          0       0       0       0       0       0       0       0       0       0       0       0       
      +0       0       0
  3324 ;;      Totals:         0       0       0       0       0       0       0       0       0       0       0       0       
      +0       0       0
  3325 ;;Total ram usage:        0 bytes
  3326 ;; Hardware stack levels used: 1
  3327 ;; Hardware stack levels required when called: 1
  3328 ;; This function calls:
  3329 ;;		_I2C1_MasterSendNack
  3330 ;; This function is called by:
  3331 ;;		_I2C1_DO_RX
  3332 ;;		_I2C1_MasterFsm
  3333 ;; This function uses a non-reentrant model
  3334 ;;
  3335                           
  3336                           	psect	text25
  3337  002112                     __ptext25:
  3338                           	callstack 0
  3339  002112                     _I2C1_DO_RX_NACK_STOP:
  3340                           	callstack 24
  3341  002112                     
  3342                           ;mcc_generated_files/i2c1_master.c: 484:     I2C1_MasterSendNack();
  3343  002112  ECAB  F010         	call	_I2C1_MasterSendNack	;wreg free
  3344  002116                     
  3345                           ;mcc_generated_files/i2c1_master.c: 485:     return I2C1_SEND_STOP;
  3346  002116  0E0A               	movlw	10
  3347  002118  0012               	return		;funcret
  3348  00211A                     __end_of_I2C1_DO_RX_NACK_STOP:
  3349                           	callstack 0
  3350                           
  3351 ;; *************** function _I2C1_DO_RX_ACK *****************
  3352 ;; Defined at:
  3353 ;;		line 475 in file "mcc_generated_files/i2c1_master.c"
  3354 ;; Parameters:    Size  Location     Type
  3355 ;;		None
  3356 ;; Auto vars:     Size  Location     Type
  3357 ;;		None
  3358 ;; Return value:  Size  Location     Type
  3359 ;;                  1    wreg      enum E13076
  3360 ;; Registers used:
  3361 ;;		wreg, cstack
  3362 ;; Tracked objects:
  3363 ;;		On entry : 0/0
  3364 ;;		On exit  : 0/0
  3365 ;;		Unchanged: 0/0
  3366 ;; Data sizes:     COMRAM   BANK0   BANK1   BANK2   BANK3   BANK4   BANK5   BANK6   BANK7   BANK8   BANK9  BANK10  BANK1
      +1  BANK12  BANK14
  3367 ;;      Params:         0       0       0       0       0       0       0       0       0       0       0       0       
      +0       0       0
  3368 ;;      Locals:         0       0       0       0       0       0       0       0       0       0       0       0       
      +0       0       0
  3369 ;;      Temps:          0       0       0       0       0       0       0       0       0       0       0       0       
      +0       0       0
  3370 ;;      Totals:         0       0       0       0       0       0       0       0       0       0       0       0       
      +0       0       0
  3371 ;;Total ram usage:        0 bytes
  3372 ;; Hardware stack levels used: 1
  3373 ;; Hardware stack levels required when called: 1
  3374 ;; This function calls:
  3375 ;;		_I2C1_MasterSendAck
  3376 ;; This function is called by:
  3377 ;;		_I2C1_MasterFsm
  3378 ;; This function uses a non-reentrant model
  3379 ;;
  3380                           
  3381                           	psect	text26
  3382  00211A                     __ptext26:
  3383                           	callstack 0
  3384  00211A                     _I2C1_DO_RX_ACK:
  3385                           	callstack 24
  3386  00211A                     
  3387                           ;mcc_generated_files/i2c1_master.c: 477:     I2C1_MasterSendAck();
  3388  00211A  ECA8  F010         	call	_I2C1_MasterSendAck	;wreg free
  3389  00211E                     
  3390                           ;mcc_generated_files/i2c1_master.c: 478:     return I2C1_RCEN;
  3391  00211E  0E05               	movlw	5
  3392  002120  0012               	return		;funcret
  3393  002122                     __end_of_I2C1_DO_RX_ACK:
  3394                           	callstack 0
  3395                           
  3396 ;; *************** function _I2C1_DO_SEND_STOP *****************
  3397 ;; Defined at:
  3398 ;;		line 469 in file "mcc_generated_files/i2c1_master.c"
  3399 ;; Parameters:    Size  Location     Type
  3400 ;;		None
  3401 ;; Auto vars:     Size  Location     Type
  3402 ;;		None
  3403 ;; Return value:  Size  Location     Type
  3404 ;;                  1    wreg      enum E13076
  3405 ;; Registers used:
  3406 ;;		wreg, cstack
  3407 ;; Tracked objects:
  3408 ;;		On entry : 0/0
  3409 ;;		On exit  : 0/0
  3410 ;;		Unchanged: 0/0
  3411 ;; Data sizes:     COMRAM   BANK0   BANK1   BANK2   BANK3   BANK4   BANK5   BANK6   BANK7   BANK8   BANK9  BANK10  BANK1
      +1  BANK12  BANK14
  3412 ;;      Params:         0       0       0       0       0       0       0       0       0       0       0       0       
      +0       0       0
  3413 ;;      Locals:         0       0       0       0       0       0       0       0       0       0       0       0       
      +0       0       0
  3414 ;;      Temps:          0       0       0       0       0       0       0       0       0       0       0       0       
      +0       0       0
  3415 ;;      Totals:         0       0       0       0       0       0       0       0       0       0       0       0       
      +0       0       0
  3416 ;;Total ram usage:        0 bytes
  3417 ;; Hardware stack levels used: 1
  3418 ;; Hardware stack levels required when called: 1
  3419 ;; This function calls:
  3420 ;;		_I2C1_MasterStop
  3421 ;; This function is called by:
  3422 ;;		_I2C1_DO_TX
  3423 ;;		_I2C1_DO_TX_EMPTY
  3424 ;;		_I2C1_DO_ADDRESS_NACK
  3425 ;;		_I2C1_MasterFsm
  3426 ;; This function uses a non-reentrant model
  3427 ;;
  3428                           
  3429                           	psect	text27
  3430  002122                     __ptext27:
  3431                           	callstack 0
  3432  002122                     _I2C1_DO_SEND_STOP:
  3433                           	callstack 23
  3434  002122                     
  3435                           ;mcc_generated_files/i2c1_master.c: 471:     I2C1_MasterStop();
  3436  002122  ECBC  F010         	call	_I2C1_MasterStop	;wreg free
  3437  002126                     
  3438                           ;mcc_generated_files/i2c1_master.c: 472:     return I2C1_IDLE;
  3439  002126  0E00               	movlw	0
  3440  002128  0012               	return		;funcret
  3441  00212A                     __end_of_I2C1_DO_SEND_STOP:
  3442                           	callstack 0
  3443                           
  3444 ;; *************** function _I2C1_DO_SEND_RESTART *****************
  3445 ;; Defined at:
  3446 ;;		line 463 in file "mcc_generated_files/i2c1_master.c"
  3447 ;; Parameters:    Size  Location     Type
  3448 ;;		None
  3449 ;; Auto vars:     Size  Location     Type
  3450 ;;		None
  3451 ;; Return value:  Size  Location     Type
  3452 ;;                  1    wreg      enum E13076
  3453 ;; Registers used:
  3454 ;;		wreg, cstack
  3455 ;; Tracked objects:
  3456 ;;		On entry : 0/0
  3457 ;;		On exit  : 0/0
  3458 ;;		Unchanged: 0/0
  3459 ;; Data sizes:     COMRAM   BANK0   BANK1   BANK2   BANK3   BANK4   BANK5   BANK6   BANK7   BANK8   BANK9  BANK10  BANK1
      +1  BANK12  BANK14
  3460 ;;      Params:         0       0       0       0       0       0       0       0       0       0       0       0       
      +0       0       0
  3461 ;;      Locals:         0       0       0       0       0       0       0       0       0       0       0       0       
      +0       0       0
  3462 ;;      Temps:          0       0       0       0       0       0       0       0       0       0       0       0       
      +0       0       0
  3463 ;;      Totals:         0       0       0       0       0       0       0       0       0       0       0       0       
      +0       0       0
  3464 ;;Total ram usage:        0 bytes
  3465 ;; Hardware stack levels used: 1
  3466 ;; Hardware stack levels required when called: 1
  3467 ;; This function calls:
  3468 ;;		_I2C1_MasterEnableRestart
  3469 ;; This function is called by:
  3470 ;;		_I2C1_DO_TX_EMPTY
  3471 ;;		_I2C1_DO_ADDRESS_NACK
  3472 ;;		_I2C1_MasterFsm
  3473 ;; This function uses a non-reentrant model
  3474 ;;
  3475                           
  3476                           	psect	text28
  3477  00212A                     __ptext28:
  3478                           	callstack 0
  3479  00212A                     _I2C1_DO_SEND_RESTART:
  3480                           	callstack 23
  3481  00212A                     
  3482                           ;mcc_generated_files/i2c1_master.c: 465:     I2C1_MasterEnableRestart();
  3483  00212A  ECBE  F010         	call	_I2C1_MasterEnableRestart	;wreg free
  3484  00212E                     
  3485                           ;mcc_generated_files/i2c1_master.c: 466:     return I2C1_SEND_ADR_READ;
  3486  00212E  0E01               	movlw	1
  3487  002130  0012               	return		;funcret
  3488  002132                     __end_of_I2C1_DO_SEND_RESTART:
  3489                           	callstack 0
  3490                           
  3491 ;; *************** function _I2C1_DO_SEND_RESTART_WRITE *****************
  3492 ;; Defined at:
  3493 ;;		line 456 in file "mcc_generated_files/i2c1_master.c"
  3494 ;; Parameters:    Size  Location     Type
  3495 ;;		None
  3496 ;; Auto vars:     Size  Location     Type
  3497 ;;		None
  3498 ;; Return value:  Size  Location     Type
  3499 ;;                  1    wreg      enum E13076
  3500 ;; Registers used:
  3501 ;;		wreg, cstack
  3502 ;; Tracked objects:
  3503 ;;		On entry : 0/0
  3504 ;;		On exit  : 0/0
  3505 ;;		Unchanged: 0/0
  3506 ;; Data sizes:     COMRAM   BANK0   BANK1   BANK2   BANK3   BANK4   BANK5   BANK6   BANK7   BANK8   BANK9  BANK10  BANK1
      +1  BANK12  BANK14
  3507 ;;      Params:         0       0       0       0       0       0       0       0       0       0       0       0       
      +0       0       0
  3508 ;;      Locals:         0       0       0       0       0       0       0       0       0       0       0       0       
      +0       0       0
  3509 ;;      Temps:          0       0       0       0       0       0       0       0       0       0       0       0       
      +0       0       0
  3510 ;;      Totals:         0       0       0       0       0       0       0       0       0       0       0       0       
      +0       0       0
  3511 ;;Total ram usage:        0 bytes
  3512 ;; Hardware stack levels used: 1
  3513 ;; Hardware stack levels required when called: 1
  3514 ;; This function calls:
  3515 ;;		_I2C1_MasterEnableRestart
  3516 ;; This function is called by:
  3517 ;;		_I2C1_DO_TX
  3518 ;;		_I2C1_MasterFsm
  3519 ;; This function uses a non-reentrant model
  3520 ;;
  3521                           
  3522                           	psect	text29
  3523  002132                     __ptext29:
  3524                           	callstack 0
  3525  002132                     _I2C1_DO_SEND_RESTART_WRITE:
  3526                           	callstack 23
  3527  002132                     
  3528                           ;mcc_generated_files/i2c1_master.c: 458:     I2C1_MasterEnableRestart();
  3529  002132  ECBE  F010         	call	_I2C1_MasterEnableRestart	;wreg free
  3530  002136                     
  3531                           ;mcc_generated_files/i2c1_master.c: 459:     return I2C1_SEND_ADR_WRITE;
  3532  002136  0E02               	movlw	2
  3533  002138  0012               	return		;funcret
  3534  00213A                     __end_of_I2C1_DO_SEND_RESTART_WRITE:
  3535                           	callstack 0
  3536                           
  3537 ;; *************** function _I2C1_DO_SEND_RESTART_READ *****************
  3538 ;; Defined at:
  3539 ;;		line 450 in file "mcc_generated_files/i2c1_master.c"
  3540 ;; Parameters:    Size  Location     Type
  3541 ;;		None
  3542 ;; Auto vars:     Size  Location     Type
  3543 ;;		None
  3544 ;; Return value:  Size  Location     Type
  3545 ;;                  1    wreg      enum E13076
  3546 ;; Registers used:
  3547 ;;		wreg, cstack
  3548 ;; Tracked objects:
  3549 ;;		On entry : 0/0
  3550 ;;		On exit  : 0/0
  3551 ;;		Unchanged: 0/0
  3552 ;; Data sizes:     COMRAM   BANK0   BANK1   BANK2   BANK3   BANK4   BANK5   BANK6   BANK7   BANK8   BANK9  BANK10  BANK1
      +1  BANK12  BANK14
  3553 ;;      Params:         0       0       0       0       0       0       0       0       0       0       0       0       
      +0       0       0
  3554 ;;      Locals:         0       0       0       0       0       0       0       0       0       0       0       0       
      +0       0       0
  3555 ;;      Temps:          0       0       0       0       0       0       0       0       0       0       0       0       
      +0       0       0
  3556 ;;      Totals:         0       0       0       0       0       0       0       0       0       0       0       0       
      +0       0       0
  3557 ;;Total ram usage:        0 bytes
  3558 ;; Hardware stack levels used: 1
  3559 ;; Hardware stack levels required when called: 1
  3560 ;; This function calls:
  3561 ;;		_I2C1_MasterEnableRestart
  3562 ;; This function is called by:
  3563 ;;		_I2C1_DO_TX
  3564 ;;		_I2C1_MasterFsm
  3565 ;; This function uses a non-reentrant model
  3566 ;;
  3567                           
  3568                           	psect	text30
  3569  00213A                     __ptext30:
  3570                           	callstack 0
  3571  00213A                     _I2C1_DO_SEND_RESTART_READ:
  3572                           	callstack 23
  3573  00213A                     
  3574                           ;mcc_generated_files/i2c1_master.c: 452:     I2C1_MasterEnableRestart();
  3575  00213A  ECBE  F010         	call	_I2C1_MasterEnableRestart	;wreg free
  3576  00213E                     
  3577                           ;mcc_generated_files/i2c1_master.c: 453:     return I2C1_SEND_ADR_READ;
  3578  00213E  0E01               	movlw	1
  3579  002140  0012               	return		;funcret
  3580  002142                     __end_of_I2C1_DO_SEND_RESTART_READ:
  3581                           	callstack 0
  3582                           
  3583 ;; *************** function _I2C1_DO_RCEN *****************
  3584 ;; Defined at:
  3585 ;;		line 402 in file "mcc_generated_files/i2c1_master.c"
  3586 ;; Parameters:    Size  Location     Type
  3587 ;;		None
  3588 ;; Auto vars:     Size  Location     Type
  3589 ;;		None
  3590 ;; Return value:  Size  Location     Type
  3591 ;;                  1    wreg      enum E13076
  3592 ;; Registers used:
  3593 ;;		wreg, cstack
  3594 ;; Tracked objects:
  3595 ;;		On entry : 0/0
  3596 ;;		On exit  : 0/0
  3597 ;;		Unchanged: 0/0
  3598 ;; Data sizes:     COMRAM   BANK0   BANK1   BANK2   BANK3   BANK4   BANK5   BANK6   BANK7   BANK8   BANK9  BANK10  BANK1
      +1  BANK12  BANK14
  3599 ;;      Params:         0       0       0       0       0       0       0       0       0       0       0       0       
      +0       0       0
  3600 ;;      Locals:         0       0       0       0       0       0       0       0       0       0       0       0       
      +0       0       0
  3601 ;;      Temps:          0       0       0       0       0       0       0       0       0       0       0       0       
      +0       0       0
  3602 ;;      Totals:         0       0       0       0       0       0       0       0       0       0       0       0       
      +0       0       0
  3603 ;;Total ram usage:        0 bytes
  3604 ;; Hardware stack levels used: 1
  3605 ;; Hardware stack levels required when called: 1
  3606 ;; This function calls:
  3607 ;;		_I2C1_MasterStartRx
  3608 ;; This function is called by:
  3609 ;;		_I2C1_MasterFsm
  3610 ;; This function uses a non-reentrant model
  3611 ;;
  3612                           
  3613                           	psect	text31
  3614  0020E0                     __ptext31:
  3615                           	callstack 0
  3616  0020E0                     _I2C1_DO_RCEN:
  3617                           	callstack 24
  3618  0020E0                     
  3619                           ;mcc_generated_files/i2c1_master.c: 404:     I2C1_Status.addressNackCheck = 0;
  3620  0020E0  0100               	movlb	0	; () banked
  3621  0020E2  9189               	bcf	(_I2C1_Status+41)& (0+255),0,b
  3622  0020E4                     
  3623                           ; BSR set to: 0
  3624                           ;mcc_generated_files/i2c1_master.c: 405:     I2C1_MasterStartRx();
  3625  0020E4  ECB6  F010         	call	_I2C1_MasterStartRx	;wreg free
  3626  0020E8                     
  3627                           ;mcc_generated_files/i2c1_master.c: 406:     return I2C1_RX;
  3628  0020E8  0E04               	movlw	4
  3629  0020EA  0012               	return		;funcret
  3630  0020EC                     __end_of_I2C1_DO_RCEN:
  3631                           	callstack 0
  3632                           
  3633 ;; *************** function _I2C1_DO_RX *****************
  3634 ;; Defined at:
  3635 ;;		line 378 in file "mcc_generated_files/i2c1_master.c"
  3636 ;; Parameters:    Size  Location     Type
  3637 ;;		None
  3638 ;; Auto vars:     Size  Location     Type
  3639 ;;		None
  3640 ;; Return value:  Size  Location     Type
  3641 ;;                  1    wreg      enum E13076
  3642 ;; Registers used:
  3643 ;;		wreg, fsr2l, fsr2h, status,2, status,0, pcl, pclath, pclatu, tosl, prodl, prodh, cstack
  3644 ;; Tracked objects:
  3645 ;;		On entry : 0/0
  3646 ;;		On exit  : 0/0
  3647 ;;		Unchanged: 0/0
  3648 ;; Data sizes:     COMRAM   BANK0   BANK1   BANK2   BANK3   BANK4   BANK5   BANK6   BANK7   BANK8   BANK9  BANK10  BANK1
      +1  BANK12  BANK14
  3649 ;;      Params:         0       0       0       0       0       0       0       0       0       0       0       0       
      +0       0       0
  3650 ;;      Locals:         0       0       0       0       0       0       0       0       0       0       0       0       
      +0       0       0
  3651 ;;      Temps:          2       0       0       0       0       0       0       0       0       0       0       0       
      +0       0       0
  3652 ;;      Totals:         2       0       0       0       0       0       0       0       0       0       0       0       
      +0       0       0
  3653 ;;Total ram usage:        2 bytes
  3654 ;; Hardware stack levels used: 1
  3655 ;; Hardware stack levels required when called: 3
  3656 ;; This function calls:
  3657 ;;		Absolute function
  3658 ;;		_I2C1_CallbackReturnReset
  3659 ;;		_I2C1_CallbackReturnStop
  3660 ;;		_I2C1_DO_RX_NACK_RESTART
  3661 ;;		_I2C1_DO_RX_NACK_STOP
  3662 ;;		_I2C1_MasterGetRxData
  3663 ;;		_I2C1_MasterSendAck
  3664 ;;		_rd1RegCompleteHandler
  3665 ;;		_rd1RegCompleteHandler@i2c1_master_example$F145
  3666 ;;		_rd2RegCompleteHandler
  3667 ;;		_rd2RegCompleteHandler@i2c1_master_example$F156
  3668 ;;		_rdBlkRegCompleteHandler
  3669 ;;		_rdBlkRegCompleteHandler@i2c1_master_example$F179
  3670 ;;		_wr1RegCompleteHandler
  3671 ;;		_wr1RegCompleteHandler@i2c1_master_example$F162
  3672 ;;		_wr2RegCompleteHandler
  3673 ;;		_wr2RegCompleteHandler@i2c1_master_example$F168
  3674 ;; This function is called by:
  3675 ;;		_I2C1_MasterFsm
  3676 ;; This function uses a non-reentrant model
  3677 ;;
  3678                           
  3679                           	psect	text32
  3680  00164C                     __ptext32:
  3681                           	callstack 0
  3682  00164C                     _I2C1_DO_RX:
  3683                           	callstack 22
  3684  00164C                     
  3685                           ;mcc_generated_files/i2c1_master.c: 380:     *I2C1_Status.data_ptr++ = I2C1_MasterGetRxD
      +                          ata();
  3686  00164C  ECB4  F010         	call	_I2C1_MasterGetRxData	;wreg free
  3687  001650  C083  FFD9         	movff	_I2C1_Status+35,fsr2l
  3688  001654  C084  FFDA         	movff	_I2C1_Status+36,fsr2h
  3689  001658  6EDF               	movwf	indf2,c
  3690  00165A  0100               	movlb	0	; () banked
  3691  00165C  4B83               	infsnz	(_I2C1_Status+35)& (0+255),f,b
  3692  00165E  2B84               	incf	(_I2C1_Status+36)& (0+255),f,b
  3693  001660                     
  3694                           ; BSR set to: 0
  3695                           ;mcc_generated_files/i2c1_master.c: 381:     if(--I2C1_Status.data_length)
  3696  001660  0785               	decf	(_I2C1_Status+37)& (0+255),f,b
  3697  001662  A0D8               	btfss	status,0,c
  3698  001664  0786               	decf	(_I2C1_Status+38)& (0+255),f,b
  3699  001666  5185               	movf	(_I2C1_Status+37)& (0+255),w,b
  3700  001668  1186               	iorwf	(_I2C1_Status+38)& (0+255),w,b
  3701  00166A  B4D8               	btfsc	status,2,c
  3702  00166C  EF3A  F00B         	goto	u981
  3703  001670  EF3C  F00B         	goto	u980
  3704  001674                     u981:
  3705  001674  EF41  F00B         	goto	l477
  3706  001678                     u980:
  3707  001678                     
  3708                           ; BSR set to: 0
  3709                           ;mcc_generated_files/i2c1_master.c: 382:     {;mcc_generated_files/i2c1_master.c: 383:  
      +                                 I2C1_MasterSendAck();
  3710  001678  ECA8  F010         	call	_I2C1_MasterSendAck	;wreg free
  3711  00167C                     
  3712                           ;mcc_generated_files/i2c1_master.c: 384:         return I2C1_RCEN;
  3713  00167C  0E05               	movlw	5
  3714  00167E  EF79  F00B         	goto	l478
  3715  001682                     l477:
  3716                           
  3717                           ; BSR set to: 0
  3718                           ;mcc_generated_files/i2c1_master.c: 387:     {;mcc_generated_files/i2c1_master.c: 388:  
      +                                 I2C1_Status.bufferFree = 1;
  3719  001682  8789               	bsf	(_I2C1_Status+41)& (0+255),3,b
  3720                           
  3721                           ;mcc_generated_files/i2c1_master.c: 389:         switch(I2C1_Status.callbackTable[I2C1_D
      +                          ATA_COMPLETE](I2C1_Status.callbackPayload[I2C1_DATA_COMPLETE]))
  3722  001684  EF4C  F00B         	goto	l2879
  3723  001688                     l2869:
  3724                           
  3725                           ;mcc_generated_files/i2c1_master.c: 393:                 return I2C1_DO_RX_NACK_RESTART(
      +                          );
  3726  001688  EC85  F010         	call	_I2C1_DO_RX_NACK_RESTART	;wreg free
  3727  00168C  EF79  F00B         	goto	l478
  3728  001690                     l2873:
  3729                           
  3730                           ;mcc_generated_files/i2c1_master.c: 397:                 return I2C1_DO_RX_NACK_STOP();
  3731  001690  EC89  F010         	call	_I2C1_DO_RX_NACK_STOP	;wreg free
  3732  001694  EF79  F00B         	goto	l478
  3733  001698                     l2879:
  3734                           
  3735                           ; BSR set to: 0
  3736  001698  C072  F00C         	movff	_I2C1_Status+18,I2C1_CallbackReturnReset@funPtr
  3737  00169C  C073  F00D         	movff	_I2C1_Status+19,I2C1_CallbackReturnReset@funPtr+1
  3738  0016A0  D802               	call	u998
  3739  0016A2  EF5D  F00B         	goto	u999
  3740  0016A6                     u998:
  3741  0016A6  0005               	push	
  3742  0016A8  6EFA               	movwf	pclath,c
  3743  0016AA  5160               	movf	_I2C1_Status& (0+255),w,b
  3744  0016AC  6EFD               	movwf	tosl,c
  3745  0016AE  5161               	movf	(_I2C1_Status+1)& (0+255),w,b
  3746  0016B0  6EFE               	movwf	tosh,c
  3747  0016B2  5162               	movf	(_I2C1_Status+2)& (0+255),w,b
  3748  0016B4  6EFF               	movwf	tosu,c
  3749  0016B6  50FA               	movf	pclath,w,c
  3750  0016B8  0012               	return		;indir
  3751  0016BA                     u999:
  3752  0016BA  6E0E               	movwf	??_I2C1_DO_RX^0,c
  3753  0016BC  6A0F               	clrf	(??_I2C1_DO_RX+1)^0,c
  3754                           
  3755                           ; Switch on 2 bytes has been partitioned into a top level switch of size 1, and 1 sub-sw
      +                          itches
  3756                           ; Switch size 1, requested type "simple"
  3757                           ; Number of cases is 1, Range of values is 0 to 0
  3758                           ; switch strategies available:
  3759                           ; Name         Instructions Cycles
  3760                           ; simple_byte            4     3 (average)
  3761                           ;	Chosen strategy is simple_byte
  3762  0016BE  500F               	movf	(??_I2C1_DO_RX+1)^0,w,c
  3763  0016C0  0A00               	xorlw	0	; case 0
  3764  0016C2  B4D8               	btfsc	status,2,c
  3765  0016C4  EF66  F00B         	goto	l3625
  3766  0016C8  EF48  F00B         	goto	l2873
  3767  0016CC                     l3625:
  3768                           
  3769                           ; Switch size 1, requested type "simple"
  3770                           ; Number of cases is 4, Range of values is 1 to 4
  3771                           ; switch strategies available:
  3772                           ; Name         Instructions Cycles
  3773                           ; simple_byte           13     7 (average)
  3774                           ;	Chosen strategy is simple_byte
  3775  0016CC  500E               	movf	??_I2C1_DO_RX^0,w,c
  3776  0016CE  0A01               	xorlw	1	; case 1
  3777  0016D0  B4D8               	btfsc	status,2,c
  3778  0016D2  EF48  F00B         	goto	l2873
  3779  0016D6  0A03               	xorlw	3	; case 2
  3780  0016D8  B4D8               	btfsc	status,2,c
  3781  0016DA  EF44  F00B         	goto	l2869
  3782  0016DE  0A01               	xorlw	1	; case 3
  3783  0016E0  B4D8               	btfsc	status,2,c
  3784  0016E2  EF44  F00B         	goto	l2869
  3785  0016E6  0A07               	xorlw	7	; case 4
  3786  0016E8  B4D8               	btfsc	status,2,c
  3787  0016EA  EF48  F00B         	goto	l2873
  3788  0016EE  EF48  F00B         	goto	l2873
  3789  0016F2                     l478:
  3790  0016F2  0012               	return		;funcret
  3791  0016F4                     __end_of_I2C1_DO_RX:
  3792                           	callstack 0
  3793                           
  3794 ;; *************** function _I2C1_DO_TX *****************
  3795 ;; Defined at:
  3796 ;;		line 354 in file "mcc_generated_files/i2c1_master.c"
  3797 ;; Parameters:    Size  Location     Type
  3798 ;;		None
  3799 ;; Auto vars:     Size  Location     Type
  3800 ;;		None
  3801 ;; Return value:  Size  Location     Type
  3802 ;;                  1    wreg      enum E13076
  3803 ;; Registers used:
  3804 ;;		wreg, fsr2l, fsr2h, status,2, status,0, pcl, pclath, pclatu, tosl, prodl, prodh, cstack
  3805 ;; Tracked objects:
  3806 ;;		On entry : 0/0
  3807 ;;		On exit  : 0/0
  3808 ;;		Unchanged: 0/0
  3809 ;; Data sizes:     COMRAM   BANK0   BANK1   BANK2   BANK3   BANK4   BANK5   BANK6   BANK7   BANK8   BANK9  BANK10  BANK1
      +1  BANK12  BANK14
  3810 ;;      Params:         0       0       0       0       0       0       0       0       0       0       0       0       
      +0       0       0
  3811 ;;      Locals:         0       0       0       0       0       0       0       0       0       0       0       0       
      +0       0       0
  3812 ;;      Temps:          2       0       0       0       0       0       0       0       0       0       0       0       
      +0       0       0
  3813 ;;      Totals:         2       0       0       0       0       0       0       0       0       0       0       0       
      +0       0       0
  3814 ;;Total ram usage:        2 bytes
  3815 ;; Hardware stack levels used: 1
  3816 ;; Hardware stack levels required when called: 3
  3817 ;; This function calls:
  3818 ;;		Absolute function
  3819 ;;		_I2C1_CallbackReturnReset
  3820 ;;		_I2C1_CallbackReturnStop
  3821 ;;		_I2C1_DO_SEND_RESTART_READ
  3822 ;;		_I2C1_DO_SEND_RESTART_WRITE
  3823 ;;		_I2C1_DO_SEND_STOP
  3824 ;;		_I2C1_MasterIsNack
  3825 ;;		_I2C1_MasterSendTxData
  3826 ;;		_rd1RegCompleteHandler
  3827 ;;		_rd1RegCompleteHandler@i2c1_master_example$F145
  3828 ;;		_rd2RegCompleteHandler
  3829 ;;		_rd2RegCompleteHandler@i2c1_master_example$F156
  3830 ;;		_rdBlkRegCompleteHandler
  3831 ;;		_rdBlkRegCompleteHandler@i2c1_master_example$F179
  3832 ;;		_wr1RegCompleteHandler
  3833 ;;		_wr1RegCompleteHandler@i2c1_master_example$F162
  3834 ;;		_wr2RegCompleteHandler
  3835 ;;		_wr2RegCompleteHandler@i2c1_master_example$F168
  3836 ;; This function is called by:
  3837 ;;		_I2C1_MasterFsm
  3838 ;; This function uses a non-reentrant model
  3839 ;;
  3840                           
  3841                           	psect	text33
  3842  0014BE                     __ptext33:
  3843                           	callstack 0
  3844  0014BE                     _I2C1_DO_TX:
  3845                           	callstack 22
  3846  0014BE                     
  3847                           ;mcc_generated_files/i2c1_master.c: 356:     if(I2C1_MasterIsNack())
  3848  0014BE  EC1F  F010         	call	_I2C1_MasterIsNack	;wreg free
  3849  0014C2  0900               	iorlw	0
  3850  0014C4  B4D8               	btfsc	status,2,c
  3851  0014C6  EF67  F00A         	goto	u951
  3852  0014CA  EF69  F00A         	goto	u950
  3853  0014CE                     u951:
  3854  0014CE  EFA6  F00A         	goto	l461
  3855  0014D2                     u950:
  3856  0014D2  EF77  F00A         	goto	l2839
  3857  0014D6                     l2825:
  3858                           
  3859                           ;mcc_generated_files/i2c1_master.c: 361:                 return I2C1_DO_SEND_RESTART_REA
      +                          D();
  3860  0014D6  EC9D  F010         	call	_I2C1_DO_SEND_RESTART_READ	;wreg free
  3861  0014DA  EFC2  F00A         	goto	l464
  3862  0014DE                     l2829:
  3863                           
  3864                           ;mcc_generated_files/i2c1_master.c: 363:                   return I2C1_DO_SEND_RESTART_W
      +                          RITE();
  3865  0014DE  EC99  F010         	call	_I2C1_DO_SEND_RESTART_WRITE	;wreg free
  3866  0014E2  EFC2  F00A         	goto	l464
  3867  0014E6                     l2833:
  3868                           
  3869                           ;mcc_generated_files/i2c1_master.c: 367:                 return I2C1_DO_SEND_STOP();
  3870  0014E6  EC91  F010         	call	_I2C1_DO_SEND_STOP	;wreg free
  3871  0014EA  EFC2  F00A         	goto	l464
  3872  0014EE                     l2839:
  3873  0014EE  C078  F00C         	movff	_I2C1_Status+24,I2C1_CallbackReturnReset@funPtr
  3874  0014F2  C079  F00D         	movff	_I2C1_Status+25,I2C1_CallbackReturnReset@funPtr+1
  3875  0014F6  EE20  F069         	lfsr	2,_I2C1_Status+9
  3876  0014FA  D802               	call	u968
  3877  0014FC  EF8A  F00A         	goto	u969
  3878  001500                     u968:
  3879  001500  0005               	push	
  3880  001502  6EFA               	movwf	pclath,c
  3881  001504  50DE               	movf	postinc2,w,c
  3882  001506  6EFD               	movwf	tosl,c
  3883  001508  50DE               	movf	postinc2,w,c
  3884  00150A  6EFE               	movwf	tosh,c
  3885  00150C  50DE               	movf	postinc2,w,c
  3886  00150E  6EFF               	movwf	tosu,c
  3887  001510  50FA               	movf	pclath,w,c
  3888  001512  0012               	return		;indir
  3889  001514                     u969:
  3890  001514  6E0E               	movwf	??_I2C1_DO_TX^0,c
  3891  001516  6A0F               	clrf	(??_I2C1_DO_TX+1)^0,c
  3892                           
  3893                           ; Switch on 2 bytes has been partitioned into a top level switch of size 1, and 1 sub-sw
      +                          itches
  3894                           ; Switch size 1, requested type "simple"
  3895                           ; Number of cases is 1, Range of values is 0 to 0
  3896                           ; switch strategies available:
  3897                           ; Name         Instructions Cycles
  3898                           ; simple_byte            4     3 (average)
  3899                           ;	Chosen strategy is simple_byte
  3900  001518  500F               	movf	(??_I2C1_DO_TX+1)^0,w,c
  3901  00151A  0A00               	xorlw	0	; case 0
  3902  00151C  B4D8               	btfsc	status,2,c
  3903  00151E  EF93  F00A         	goto	l3627
  3904  001522  EF73  F00A         	goto	l2833
  3905  001526                     l3627:
  3906                           
  3907                           ; Switch size 1, requested type "simple"
  3908                           ; Number of cases is 4, Range of values is 1 to 4
  3909                           ; switch strategies available:
  3910                           ; Name         Instructions Cycles
  3911                           ; simple_byte           13     7 (average)
  3912                           ;	Chosen strategy is simple_byte
  3913  001526  500E               	movf	??_I2C1_DO_TX^0,w,c
  3914  001528  0A01               	xorlw	1	; case 1
  3915  00152A  B4D8               	btfsc	status,2,c
  3916  00152C  EF73  F00A         	goto	l2833
  3917  001530  0A03               	xorlw	3	; case 2
  3918  001532  B4D8               	btfsc	status,2,c
  3919  001534  EF6B  F00A         	goto	l2825
  3920  001538  0A01               	xorlw	1	; case 3
  3921  00153A  B4D8               	btfsc	status,2,c
  3922  00153C  EF6F  F00A         	goto	l2829
  3923  001540  0A07               	xorlw	7	; case 4
  3924  001542  B4D8               	btfsc	status,2,c
  3925  001544  EF73  F00A         	goto	l2833
  3926  001548  EF73  F00A         	goto	l2833
  3927  00154C                     l461:
  3928                           
  3929                           ;mcc_generated_files/i2c1_master.c: 371:     {;mcc_generated_files/i2c1_master.c: 372:  
      +                                 I2C1_Status.addressNackCheck = 0;
  3930  00154C  0100               	movlb	0	; () banked
  3931  00154E  9189               	bcf	(_I2C1_Status+41)& (0+255),0,b
  3932  001550                     
  3933                           ; BSR set to: 0
  3934                           ;mcc_generated_files/i2c1_master.c: 373:         I2C1_MasterSendTxData(*I2C1_Status.data
      +                          _ptr++);
  3935  001550  C083  FFD9         	movff	_I2C1_Status+35,fsr2l
  3936  001554  C084  FFDA         	movff	_I2C1_Status+36,fsr2h
  3937  001558  4B83               	infsnz	(_I2C1_Status+35)& (0+255),f,b
  3938  00155A  2B84               	incf	(_I2C1_Status+36)& (0+255),f,b
  3939  00155C  50DF               	movf	indf2,w,c
  3940  00155E  ECA1  F010         	call	_I2C1_MasterSendTxData
  3941  001562                     
  3942                           ;mcc_generated_files/i2c1_master.c: 374:         return (--I2C1_Status.data_length)?I2C1
      +                          _TX:I2C1_TX_EMPTY;
  3943  001562  0100               	movlb	0	; () banked
  3944  001564  0785               	decf	(_I2C1_Status+37)& (0+255),f,b
  3945  001566  A0D8               	btfss	status,0,c
  3946  001568  0786               	decf	(_I2C1_Status+38)& (0+255),f,b
  3947  00156A  5185               	movf	(_I2C1_Status+37)& (0+255),w,b
  3948  00156C  1186               	iorwf	(_I2C1_Status+38)& (0+255),w,b
  3949  00156E  A4D8               	btfss	status,2,c
  3950  001570  EFBC  F00A         	goto	u971
  3951  001574  EFBE  F00A         	goto	u970
  3952  001578                     u971:
  3953  001578  EFC1  F00A         	goto	l2847
  3954  00157C                     u970:
  3955  00157C                     
  3956                           ; BSR set to: 0
  3957  00157C  0E06               	movlw	6
  3958  00157E  EFC2  F00A         	goto	l464
  3959  001582                     l2847:
  3960                           
  3961                           ; BSR set to: 0
  3962  001582  0E03               	movlw	3
  3963  001584                     l464:
  3964  001584  0012               	return		;funcret
  3965  001586                     __end_of_I2C1_DO_TX:
  3966                           	callstack 0
  3967                           
  3968 ;; *************** function _I2C1_DO_SEND_ADR_WRITE *****************
  3969 ;; Defined at:
  3970 ;;		line 347 in file "mcc_generated_files/i2c1_master.c"
  3971 ;; Parameters:    Size  Location     Type
  3972 ;;		None
  3973 ;; Auto vars:     Size  Location     Type
  3974 ;;		None
  3975 ;; Return value:  Size  Location     Type
  3976 ;;                  1    wreg      enum E13076
  3977 ;; Registers used:
  3978 ;;		wreg, status,2, status,0, cstack
  3979 ;; Tracked objects:
  3980 ;;		On entry : 0/0
  3981 ;;		On exit  : 0/0
  3982 ;;		Unchanged: 0/0
  3983 ;; Data sizes:     COMRAM   BANK0   BANK1   BANK2   BANK3   BANK4   BANK5   BANK6   BANK7   BANK8   BANK9  BANK10  BANK1
      +1  BANK12  BANK14
  3984 ;;      Params:         0       0       0       0       0       0       0       0       0       0       0       0       
      +0       0       0
  3985 ;;      Locals:         0       0       0       0       0       0       0       0       0       0       0       0       
      +0       0       0
  3986 ;;      Temps:          0       0       0       0       0       0       0       0       0       0       0       0       
      +0       0       0
  3987 ;;      Totals:         0       0       0       0       0       0       0       0       0       0       0       0       
      +0       0       0
  3988 ;;Total ram usage:        0 bytes
  3989 ;; Hardware stack levels used: 1
  3990 ;; Hardware stack levels required when called: 1
  3991 ;; This function calls:
  3992 ;;		_I2C1_MasterSendTxData
  3993 ;; This function is called by:
  3994 ;;		_I2C1_MasterFsm
  3995 ;; This function uses a non-reentrant model
  3996 ;;
  3997                           
  3998                           	psect	text34
  3999  00208A                     __ptext34:
  4000                           	callstack 0
  4001  00208A                     _I2C1_DO_SEND_ADR_WRITE:
  4002                           	callstack 24
  4003  00208A                     
  4004                           ;mcc_generated_files/i2c1_master.c: 349:     I2C1_Status.addressNackCheck = 1;
  4005  00208A  0100               	movlb	0	; () banked
  4006  00208C  8189               	bsf	(_I2C1_Status+41)& (0+255),0,b
  4007  00208E                     
  4008                           ; BSR set to: 0
  4009                           ;mcc_generated_files/i2c1_master.c: 350:     I2C1_MasterSendTxData((uint8_t) (I2C1_Statu
      +                          s.address << 1));
  4010  00208E  5182               	movf	(_I2C1_Status+34)& (0+255),w,b
  4011  002090  2582               	addwf	(_I2C1_Status+34)& (0+255),w,b
  4012  002092  ECA1  F010         	call	_I2C1_MasterSendTxData
  4013  002096                     
  4014                           ;mcc_generated_files/i2c1_master.c: 351:     return I2C1_TX;
  4015  002096  0E03               	movlw	3
  4016  002098  0012               	return		;funcret
  4017  00209A                     __end_of_I2C1_DO_SEND_ADR_WRITE:
  4018                           	callstack 0
  4019                           
  4020 ;; *************** function _I2C1_DO_SEND_ADR_READ *****************
  4021 ;; Defined at:
  4022 ;;		line 340 in file "mcc_generated_files/i2c1_master.c"
  4023 ;; Parameters:    Size  Location     Type
  4024 ;;		None
  4025 ;; Auto vars:     Size  Location     Type
  4026 ;;		None
  4027 ;; Return value:  Size  Location     Type
  4028 ;;                  1    wreg      enum E13076
  4029 ;; Registers used:
  4030 ;;		wreg, status,0, cstack
  4031 ;; Tracked objects:
  4032 ;;		On entry : 0/0
  4033 ;;		On exit  : 0/0
  4034 ;;		Unchanged: 0/0
  4035 ;; Data sizes:     COMRAM   BANK0   BANK1   BANK2   BANK3   BANK4   BANK5   BANK6   BANK7   BANK8   BANK9  BANK10  BANK1
      +1  BANK12  BANK14
  4036 ;;      Params:         0       0       0       0       0       0       0       0       0       0       0       0       
      +0       0       0
  4037 ;;      Locals:         0       0       0       0       0       0       0       0       0       0       0       0       
      +0       0       0
  4038 ;;      Temps:          0       0       0       0       0       0       0       0       0       0       0       0       
      +0       0       0
  4039 ;;      Totals:         0       0       0       0       0       0       0       0       0       0       0       0       
      +0       0       0
  4040 ;;Total ram usage:        0 bytes
  4041 ;; Hardware stack levels used: 1
  4042 ;; Hardware stack levels required when called: 1
  4043 ;; This function calls:
  4044 ;;		_I2C1_MasterSendTxData
  4045 ;; This function is called by:
  4046 ;;		_I2C1_MasterFsm
  4047 ;; This function uses a non-reentrant model
  4048 ;;
  4049                           
  4050                           	psect	text35
  4051  00209A                     __ptext35:
  4052                           	callstack 0
  4053  00209A                     _I2C1_DO_SEND_ADR_READ:
  4054                           	callstack 24
  4055  00209A                     
  4056                           ;mcc_generated_files/i2c1_master.c: 342:     I2C1_Status.addressNackCheck = 1;
  4057  00209A  0100               	movlb	0	; () banked
  4058  00209C  8189               	bsf	(_I2C1_Status+41)& (0+255),0,b
  4059  00209E                     
  4060                           ; BSR set to: 0
  4061                           ;mcc_generated_files/i2c1_master.c: 343:     I2C1_MasterSendTxData((uint8_t) (I2C1_Statu
      +                          s.address << 1 | 1));
  4062  00209E  80D8               	bsf	status,0,c
  4063  0020A0  3582               	rlcf	(_I2C1_Status+34)& (0+255),w,b
  4064  0020A2  ECA1  F010         	call	_I2C1_MasterSendTxData
  4065  0020A6                     
  4066                           ;mcc_generated_files/i2c1_master.c: 344:     return I2C1_RCEN;
  4067  0020A6  0E05               	movlw	5
  4068  0020A8  0012               	return		;funcret
  4069  0020AA                     __end_of_I2C1_DO_SEND_ADR_READ:
  4070                           	callstack 0
  4071                           
  4072 ;; *************** function _I2C1_DO_IDLE *****************
  4073 ;; Defined at:
  4074 ;;		line 333 in file "mcc_generated_files/i2c1_master.c"
  4075 ;; Parameters:    Size  Location     Type
  4076 ;;		None
  4077 ;; Auto vars:     Size  Location     Type
  4078 ;;		None
  4079 ;; Return value:  Size  Location     Type
  4080 ;;                  1    wreg      enum E13076
  4081 ;; Registers used:
  4082 ;;		wreg, status,2
  4083 ;; Tracked objects:
  4084 ;;		On entry : 0/0
  4085 ;;		On exit  : 0/0
  4086 ;;		Unchanged: 0/0
  4087 ;; Data sizes:     COMRAM   BANK0   BANK1   BANK2   BANK3   BANK4   BANK5   BANK6   BANK7   BANK8   BANK9  BANK10  BANK1
      +1  BANK12  BANK14
  4088 ;;      Params:         0       0       0       0       0       0       0       0       0       0       0       0       
      +0       0       0
  4089 ;;      Locals:         0       0       0       0       0       0       0       0       0       0       0       0       
      +0       0       0
  4090 ;;      Temps:          0       0       0       0       0       0       0       0       0       0       0       0       
      +0       0       0
  4091 ;;      Totals:         0       0       0       0       0       0       0       0       0       0       0       0       
      +0       0       0
  4092 ;;Total ram usage:        0 bytes
  4093 ;; Hardware stack levels used: 1
  4094 ;; This function calls:
  4095 ;;		Nothing
  4096 ;; This function is called by:
  4097 ;;		_I2C1_MasterFsm
  4098 ;; This function uses a non-reentrant model
  4099 ;;
  4100                           
  4101                           	psect	text36
  4102  0020EC                     __ptext36:
  4103                           	callstack 0
  4104  0020EC                     _I2C1_DO_IDLE:
  4105                           	callstack 25
  4106  0020EC                     
  4107                           ;mcc_generated_files/i2c1_master.c: 335:     I2C1_Status.busy = 0;
  4108  0020EC  0100               	movlb	0	; () banked
  4109  0020EE  9389               	bcf	(_I2C1_Status+41)& (0+255),1,b
  4110  0020F0                     
  4111                           ; BSR set to: 0
  4112                           ;mcc_generated_files/i2c1_master.c: 336:     I2C1_Status.error = I2C1_NOERR;
  4113  0020F0  0E00               	movlw	0
  4114  0020F2  6F88               	movwf	(_I2C1_Status+40)& (0+255),b
  4115  0020F4                     
  4116                           ; BSR set to: 0
  4117                           ;mcc_generated_files/i2c1_master.c: 337:     return I2C1_RESET;
  4118  0020F4  0E0E               	movlw	14
  4119  0020F6                     
  4120                           ; BSR set to: 0
  4121  0020F6  0012               	return		;funcret
  4122  0020F8                     __end_of_I2C1_DO_IDLE:
  4123                           	callstack 0
  4124                           
  4125 ;; *************** function _I2C1_DO_TX_EMPTY *****************
  4126 ;; Defined at:
  4127 ;;		line 409 in file "mcc_generated_files/i2c1_master.c"
  4128 ;; Parameters:    Size  Location     Type
  4129 ;;		None
  4130 ;; Auto vars:     Size  Location     Type
  4131 ;;		None
  4132 ;; Return value:  Size  Location     Type
  4133 ;;                  1    wreg      enum E13076
  4134 ;; Registers used:
  4135 ;;		wreg, fsr2l, fsr2h, status,2, status,0, pcl, pclath, pclatu, tosl, prodl, prodh, cstack
  4136 ;; Tracked objects:
  4137 ;;		On entry : 0/0
  4138 ;;		On exit  : 0/0
  4139 ;;		Unchanged: 0/0
  4140 ;; Data sizes:     COMRAM   BANK0   BANK1   BANK2   BANK3   BANK4   BANK5   BANK6   BANK7   BANK8   BANK9  BANK10  BANK1
      +1  BANK12  BANK14
  4141 ;;      Params:         0       0       0       0       0       0       0       0       0       0       0       0       
      +0       0       0
  4142 ;;      Locals:         0       0       0       0       0       0       0       0       0       0       0       0       
      +0       0       0
  4143 ;;      Temps:          2       0       0       0       0       0       0       0       0       0       0       0       
      +0       0       0
  4144 ;;      Totals:         2       0       0       0       0       0       0       0       0       0       0       0       
      +0       0       0
  4145 ;;Total ram usage:        2 bytes
  4146 ;; Hardware stack levels used: 1
  4147 ;; Hardware stack levels required when called: 3
  4148 ;; This function calls:
  4149 ;;		Absolute function
  4150 ;;		_I2C1_CallbackReturnReset
  4151 ;;		_I2C1_CallbackReturnStop
  4152 ;;		_I2C1_DO_SEND_RESTART
  4153 ;;		_I2C1_DO_SEND_STOP
  4154 ;;		_I2C1_MasterSetIrq
  4155 ;;		_rd1RegCompleteHandler
  4156 ;;		_rd1RegCompleteHandler@i2c1_master_example$F145
  4157 ;;		_rd2RegCompleteHandler
  4158 ;;		_rd2RegCompleteHandler@i2c1_master_example$F156
  4159 ;;		_rdBlkRegCompleteHandler
  4160 ;;		_rdBlkRegCompleteHandler@i2c1_master_example$F179
  4161 ;;		_wr1RegCompleteHandler
  4162 ;;		_wr1RegCompleteHandler@i2c1_master_example$F162
  4163 ;;		_wr2RegCompleteHandler
  4164 ;;		_wr2RegCompleteHandler@i2c1_master_example$F168
  4165 ;; This function is called by:
  4166 ;;		_I2C1_MasterFsm
  4167 ;; This function uses a non-reentrant model
  4168 ;;
  4169                           
  4170                           	psect	text37
  4171  0019CC                     __ptext37:
  4172                           	callstack 0
  4173  0019CC                     _I2C1_DO_TX_EMPTY:
  4174                           	callstack 22
  4175  0019CC                     
  4176                           ;mcc_generated_files/i2c1_master.c: 411:     I2C1_Status.bufferFree = 1;
  4177  0019CC  0100               	movlb	0	; () banked
  4178  0019CE  8789               	bsf	(_I2C1_Status+41)& (0+255),3,b
  4179                           
  4180                           ;mcc_generated_files/i2c1_master.c: 412:     switch(I2C1_Status.callbackTable[I2C1_DATA_
      +                          COMPLETE](I2C1_Status.callbackPayload[I2C1_DATA_COMPLETE]))
  4181  0019D0  EFF7  F00C         	goto	l2911
  4182  0019D4                     l2895:
  4183                           
  4184                           ;mcc_generated_files/i2c1_master.c: 416:             return I2C1_DO_SEND_RESTART();
  4185  0019D4  EC95  F010         	call	_I2C1_DO_SEND_RESTART	;wreg free
  4186  0019D8  EF24  F00D         	goto	l495
  4187  0019DC                     l2899:
  4188                           
  4189                           ;mcc_generated_files/i2c1_master.c: 418:             I2C1_MasterSetIrq();
  4190  0019DC  ECA5  F010         	call	_I2C1_MasterSetIrq	;wreg free
  4191  0019E0                     
  4192                           ;mcc_generated_files/i2c1_master.c: 419:             return I2C1_TX;
  4193  0019E0  0E03               	movlw	3
  4194  0019E2  EF24  F00D         	goto	l495
  4195  0019E6                     l2905:
  4196                           
  4197                           ;mcc_generated_files/i2c1_master.c: 422:             return I2C1_DO_SEND_STOP();
  4198  0019E6  EC91  F010         	call	_I2C1_DO_SEND_STOP	;wreg free
  4199  0019EA  EF24  F00D         	goto	l495
  4200  0019EE                     l2911:
  4201                           
  4202                           ; BSR set to: 0
  4203  0019EE  C072  F00C         	movff	_I2C1_Status+18,I2C1_CallbackReturnReset@funPtr
  4204  0019F2  C073  F00D         	movff	_I2C1_Status+19,I2C1_CallbackReturnReset@funPtr+1
  4205  0019F6  D802               	call	u1008
  4206  0019F8  EF08  F00D         	goto	u1009
  4207  0019FC                     u1008:
  4208  0019FC  0005               	push	
  4209  0019FE  6EFA               	movwf	pclath,c
  4210  001A00  5160               	movf	_I2C1_Status& (0+255),w,b
  4211  001A02  6EFD               	movwf	tosl,c
  4212  001A04  5161               	movf	(_I2C1_Status+1)& (0+255),w,b
  4213  001A06  6EFE               	movwf	tosh,c
  4214  001A08  5162               	movf	(_I2C1_Status+2)& (0+255),w,b
  4215  001A0A  6EFF               	movwf	tosu,c
  4216  001A0C  50FA               	movf	pclath,w,c
  4217  001A0E  0012               	return		;indir
  4218  001A10                     u1009:
  4219  001A10  6E0E               	movwf	??_I2C1_DO_TX_EMPTY^0,c
  4220  001A12  6A0F               	clrf	(??_I2C1_DO_TX_EMPTY+1)^0,c
  4221                           
  4222                           ; Switch on 2 bytes has been partitioned into a top level switch of size 1, and 1 sub-sw
      +                          itches
  4223                           ; Switch size 1, requested type "simple"
  4224                           ; Number of cases is 1, Range of values is 0 to 0
  4225                           ; switch strategies available:
  4226                           ; Name         Instructions Cycles
  4227                           ; simple_byte            4     3 (average)
  4228                           ;	Chosen strategy is simple_byte
  4229  001A14  500F               	movf	(??_I2C1_DO_TX_EMPTY+1)^0,w,c
  4230  001A16  0A00               	xorlw	0	; case 0
  4231  001A18  B4D8               	btfsc	status,2,c
  4232  001A1A  EF11  F00D         	goto	l3629
  4233  001A1E  EFF3  F00C         	goto	l2905
  4234  001A22                     l3629:
  4235                           
  4236                           ; Switch size 1, requested type "simple"
  4237                           ; Number of cases is 4, Range of values is 1 to 4
  4238                           ; switch strategies available:
  4239                           ; Name         Instructions Cycles
  4240                           ; simple_byte           13     7 (average)
  4241                           ;	Chosen strategy is simple_byte
  4242  001A22  500E               	movf	??_I2C1_DO_TX_EMPTY^0,w,c
  4243  001A24  0A01               	xorlw	1	; case 1
  4244  001A26  B4D8               	btfsc	status,2,c
  4245  001A28  EFF3  F00C         	goto	l2905
  4246  001A2C  0A03               	xorlw	3	; case 2
  4247  001A2E  B4D8               	btfsc	status,2,c
  4248  001A30  EFEA  F00C         	goto	l2895
  4249  001A34  0A01               	xorlw	1	; case 3
  4250  001A36  B4D8               	btfsc	status,2,c
  4251  001A38  EFEA  F00C         	goto	l2895
  4252  001A3C  0A07               	xorlw	7	; case 4
  4253  001A3E  B4D8               	btfsc	status,2,c
  4254  001A40  EFEE  F00C         	goto	l2899
  4255  001A44  EFF3  F00C         	goto	l2905
  4256  001A48                     l495:
  4257  001A48  0012               	return		;funcret
  4258  001A4A                     __end_of_I2C1_DO_TX_EMPTY:
  4259                           	callstack 0
  4260                           
  4261 ;; *************** function _I2C1_MasterSetIrq *****************
  4262 ;; Defined at:
  4263 ;;		line 645 in file "mcc_generated_files/i2c1_master.c"
  4264 ;; Parameters:    Size  Location     Type
  4265 ;;		None
  4266 ;; Auto vars:     Size  Location     Type
  4267 ;;		None
  4268 ;; Return value:  Size  Location     Type
  4269 ;;                  1    wreg      void 
  4270 ;; Registers used:
  4271 ;;		None
  4272 ;; Tracked objects:
  4273 ;;		On entry : 0/0
  4274 ;;		On exit  : 0/0
  4275 ;;		Unchanged: 0/0
  4276 ;; Data sizes:     COMRAM   BANK0   BANK1   BANK2   BANK3   BANK4   BANK5   BANK6   BANK7   BANK8   BANK9  BANK10  BANK1
      +1  BANK12  BANK14
  4277 ;;      Params:         0       0       0       0       0       0       0       0       0       0       0       0       
      +0       0       0
  4278 ;;      Locals:         0       0       0       0       0       0       0       0       0       0       0       0       
      +0       0       0
  4279 ;;      Temps:          0       0       0       0       0       0       0       0       0       0       0       0       
      +0       0       0
  4280 ;;      Totals:         0       0       0       0       0       0       0       0       0       0       0       0       
      +0       0       0
  4281 ;;Total ram usage:        0 bytes
  4282 ;; Hardware stack levels used: 1
  4283 ;; This function calls:
  4284 ;;		Nothing
  4285 ;; This function is called by:
  4286 ;;		_I2C1_DO_TX_EMPTY
  4287 ;; This function uses a non-reentrant model
  4288 ;;
  4289                           
  4290                           	psect	text38
  4291  00214A                     __ptext38:
  4292                           	callstack 0
  4293  00214A                     _I2C1_MasterSetIrq:
  4294                           	callstack 24
  4295  00214A                     
  4296                           ;mcc_generated_files/i2c1_master.c: 647:     PIR3bits.SSP1IF = 1;
  4297  00214A  010E               	movlb	14	; () banked
  4298  00214C  81C8               	bsf	200,0,b	;volatile
  4299  00214E                     
  4300                           ; BSR set to: 14
  4301  00214E  0012               	return		;funcret
  4302  002150                     __end_of_I2C1_MasterSetIrq:
  4303                           	callstack 0
  4304                           
  4305 ;; *************** function _I2C1_MasterIsNack *****************
  4306 ;; Defined at:
  4307 ;;		line 598 in file "mcc_generated_files/i2c1_master.c"
  4308 ;; Parameters:    Size  Location     Type
  4309 ;;		None
  4310 ;; Auto vars:     Size  Location     Type
  4311 ;;		None
  4312 ;; Return value:  Size  Location     Type
  4313 ;;                  1    wreg      _Bool 
  4314 ;; Registers used:
  4315 ;;		wreg
  4316 ;; Tracked objects:
  4317 ;;		On entry : 0/0
  4318 ;;		On exit  : 0/0
  4319 ;;		Unchanged: 0/0
  4320 ;; Data sizes:     COMRAM   BANK0   BANK1   BANK2   BANK3   BANK4   BANK5   BANK6   BANK7   BANK8   BANK9  BANK10  BANK1
      +1  BANK12  BANK14
  4321 ;;      Params:         0       0       0       0       0       0       0       0       0       0       0       0       
      +0       0       0
  4322 ;;      Locals:         0       0       0       0       0       0       0       0       0       0       0       0       
      +0       0       0
  4323 ;;      Temps:          0       0       0       0       0       0       0       0       0       0       0       0       
      +0       0       0
  4324 ;;      Totals:         0       0       0       0       0       0       0       0       0       0       0       0       
      +0       0       0
  4325 ;;Total ram usage:        0 bytes
  4326 ;; Hardware stack levels used: 1
  4327 ;; This function calls:
  4328 ;;		Nothing
  4329 ;; This function is called by:
  4330 ;;		_I2C1_MasterFsm
  4331 ;;		_I2C1_DO_TX
  4332 ;; This function uses a non-reentrant model
  4333 ;;
  4334                           
  4335                           	psect	text39
  4336  00203E                     __ptext39:
  4337                           	callstack 0
  4338  00203E                     _I2C1_MasterIsNack:
  4339                           	callstack 25
  4340  00203E                     
  4341                           ;mcc_generated_files/i2c1_master.c: 600:     return SSP1CON2bits.ACKSTAT;
  4342  00203E  BC96               	btfsc	150,6,c	;volatile
  4343  002040  EF24  F010         	goto	u901
  4344  002044  EF27  F010         	goto	u900
  4345  002048                     u901:
  4346  002048  0E01               	movlw	1
  4347  00204A  EF28  F010         	goto	u906
  4348  00204E                     u900:
  4349  00204E  0E00               	movlw	0
  4350  002050                     u906:
  4351  002050  0012               	return		;funcret
  4352  002052                     __end_of_I2C1_MasterIsNack:
  4353                           	callstack 0
  4354                           
  4355 ;; *************** function _I2C1_MasterSendTxData *****************
  4356 ;; Defined at:
  4357 ;;		line 568 in file "mcc_generated_files/i2c1_master.c"
  4358 ;; Parameters:    Size  Location     Type
  4359 ;;  data            1    wreg     unsigned char 
  4360 ;; Auto vars:     Size  Location     Type
  4361 ;;  data            1    0[COMRAM] unsigned char 
  4362 ;; Return value:  Size  Location     Type
  4363 ;;                  1    wreg      void 
  4364 ;; Registers used:
  4365 ;;		wreg
  4366 ;; Tracked objects:
  4367 ;;		On entry : 0/0
  4368 ;;		On exit  : 0/0
  4369 ;;		Unchanged: 0/0
  4370 ;; Data sizes:     COMRAM   BANK0   BANK1   BANK2   BANK3   BANK4   BANK5   BANK6   BANK7   BANK8   BANK9  BANK10  BANK1
      +1  BANK12  BANK14
  4371 ;;      Params:         0       0       0       0       0       0       0       0       0       0       0       0       
      +0       0       0
  4372 ;;      Locals:         1       0       0       0       0       0       0       0       0       0       0       0       
      +0       0       0
  4373 ;;      Temps:          0       0       0       0       0       0       0       0       0       0       0       0       
      +0       0       0
  4374 ;;      Totals:         1       0       0       0       0       0       0       0       0       0       0       0       
      +0       0       0
  4375 ;;Total ram usage:        1 bytes
  4376 ;; Hardware stack levels used: 1
  4377 ;; This function calls:
  4378 ;;		Nothing
  4379 ;; This function is called by:
  4380 ;;		_I2C1_DO_SEND_ADR_READ
  4381 ;;		_I2C1_DO_SEND_ADR_WRITE
  4382 ;;		_I2C1_DO_TX
  4383 ;; This function uses a non-reentrant model
  4384 ;;
  4385                           
  4386                           	psect	text40
  4387  002142                     __ptext40:
  4388                           	callstack 0
  4389  002142                     _I2C1_MasterSendTxData:
  4390                           	callstack 24
  4391                           
  4392                           ;incstack = 0
  4393                           ;I2C1_MasterSendTxData@data stored from wreg
  4394  002142  6E01               	movwf	I2C1_MasterSendTxData@data^0,c
  4395  002144                     
  4396                           ;mcc_generated_files/i2c1_master.c: 568: static __attribute__((inline)) void I2C1_Master
      +                          SendTxData(uint8_t data);mcc_generated_files/i2c1_master.c: 569: {;mcc_generated_files/i
      +                          2c1_master.c: 570:     SSP1BUF = data;
  4397  002144  C001  FF91         	movff	I2C1_MasterSendTxData@data,3985	;volatile
  4398  002148  0012               	return		;funcret
  4399  00214A                     __end_of_I2C1_MasterSendTxData:
  4400                           	callstack 0
  4401                           
  4402 ;; *************** function _I2C1_MasterSendAck *****************
  4403 ;; Defined at:
  4404 ;;		line 603 in file "mcc_generated_files/i2c1_master.c"
  4405 ;; Parameters:    Size  Location     Type
  4406 ;;		None
  4407 ;; Auto vars:     Size  Location     Type
  4408 ;;		None
  4409 ;; Return value:  Size  Location     Type
  4410 ;;                  1    wreg      void 
  4411 ;; Registers used:
  4412 ;;		None
  4413 ;; Tracked objects:
  4414 ;;		On entry : 0/0
  4415 ;;		On exit  : 0/0
  4416 ;;		Unchanged: 0/0
  4417 ;; Data sizes:     COMRAM   BANK0   BANK1   BANK2   BANK3   BANK4   BANK5   BANK6   BANK7   BANK8   BANK9  BANK10  BANK1
      +1  BANK12  BANK14
  4418 ;;      Params:         0       0       0       0       0       0       0       0       0       0       0       0       
      +0       0       0
  4419 ;;      Locals:         0       0       0       0       0       0       0       0       0       0       0       0       
      +0       0       0
  4420 ;;      Temps:          0       0       0       0       0       0       0       0       0       0       0       0       
      +0       0       0
  4421 ;;      Totals:         0       0       0       0       0       0       0       0       0       0       0       0       
      +0       0       0
  4422 ;;Total ram usage:        0 bytes
  4423 ;; Hardware stack levels used: 1
  4424 ;; This function calls:
  4425 ;;		Nothing
  4426 ;; This function is called by:
  4427 ;;		_I2C1_DO_RX
  4428 ;;		_I2C1_DO_RX_ACK
  4429 ;; This function uses a non-reentrant model
  4430 ;;
  4431                           
  4432                           	psect	text41
  4433  002150                     __ptext41:
  4434                           	callstack 0
  4435  002150                     _I2C1_MasterSendAck:
  4436                           	callstack 24
  4437  002150                     
  4438                           ;mcc_generated_files/i2c1_master.c: 605:     SSP1CON2bits.ACKDT = 0;
  4439  002150  9A96               	bcf	150,5,c	;volatile
  4440                           
  4441                           ;mcc_generated_files/i2c1_master.c: 606:     SSP1CON2bits.ACKEN = 1;
  4442  002152  8896               	bsf	150,4,c	;volatile
  4443  002154  0012               	return		;funcret
  4444  002156                     __end_of_I2C1_MasterSendAck:
  4445                           	callstack 0
  4446                           
  4447 ;; *************** function _I2C1_MasterGetRxData *****************
  4448 ;; Defined at:
  4449 ;;		line 563 in file "mcc_generated_files/i2c1_master.c"
  4450 ;; Parameters:    Size  Location     Type
  4451 ;;		None
  4452 ;; Auto vars:     Size  Location     Type
  4453 ;;		None
  4454 ;; Return value:  Size  Location     Type
  4455 ;;                  1    wreg      unsigned char 
  4456 ;; Registers used:
  4457 ;;		wreg, status,2
  4458 ;; Tracked objects:
  4459 ;;		On entry : 0/0
  4460 ;;		On exit  : 0/0
  4461 ;;		Unchanged: 0/0
  4462 ;; Data sizes:     COMRAM   BANK0   BANK1   BANK2   BANK3   BANK4   BANK5   BANK6   BANK7   BANK8   BANK9  BANK10  BANK1
      +1  BANK12  BANK14
  4463 ;;      Params:         0       0       0       0       0       0       0       0       0       0       0       0       
      +0       0       0
  4464 ;;      Locals:         0       0       0       0       0       0       0       0       0       0       0       0       
      +0       0       0
  4465 ;;      Temps:          0       0       0       0       0       0       0       0       0       0       0       0       
      +0       0       0
  4466 ;;      Totals:         0       0       0       0       0       0       0       0       0       0       0       0       
      +0       0       0
  4467 ;;Total ram usage:        0 bytes
  4468 ;; Hardware stack levels used: 1
  4469 ;; This function calls:
  4470 ;;		Nothing
  4471 ;; This function is called by:
  4472 ;;		_I2C1_DO_RX
  4473 ;; This function uses a non-reentrant model
  4474 ;;
  4475                           
  4476                           	psect	text42
  4477  002168                     __ptext42:
  4478                           	callstack 0
  4479  002168                     _I2C1_MasterGetRxData:
  4480                           	callstack 24
  4481  002168                     
  4482                           ;mcc_generated_files/i2c1_master.c: 565:     return SSP1BUF;
  4483  002168  5091               	movf	145,w,c	;volatile
  4484  00216A  0012               	return		;funcret
  4485  00216C                     __end_of_I2C1_MasterGetRxData:
  4486                           	callstack 0
  4487                           
  4488 ;; *************** function _I2C1_MasterSendNack *****************
  4489 ;; Defined at:
  4490 ;;		line 609 in file "mcc_generated_files/i2c1_master.c"
  4491 ;; Parameters:    Size  Location     Type
  4492 ;;		None
  4493 ;; Auto vars:     Size  Location     Type
  4494 ;;		None
  4495 ;; Return value:  Size  Location     Type
  4496 ;;                  1    wreg      void 
  4497 ;; Registers used:
  4498 ;;		None
  4499 ;; Tracked objects:
  4500 ;;		On entry : 0/0
  4501 ;;		On exit  : 0/0
  4502 ;;		Unchanged: 0/0
  4503 ;; Data sizes:     COMRAM   BANK0   BANK1   BANK2   BANK3   BANK4   BANK5   BANK6   BANK7   BANK8   BANK9  BANK10  BANK1
      +1  BANK12  BANK14
  4504 ;;      Params:         0       0       0       0       0       0       0       0       0       0       0       0       
      +0       0       0
  4505 ;;      Locals:         0       0       0       0       0       0       0       0       0       0       0       0       
      +0       0       0
  4506 ;;      Temps:          0       0       0       0       0       0       0       0       0       0       0       0       
      +0       0       0
  4507 ;;      Totals:         0       0       0       0       0       0       0       0       0       0       0       0       
      +0       0       0
  4508 ;;Total ram usage:        0 bytes
  4509 ;; Hardware stack levels used: 1
  4510 ;; This function calls:
  4511 ;;		Nothing
  4512 ;; This function is called by:
  4513 ;;		_I2C1_DO_RX_NACK_STOP
  4514 ;;		_I2C1_DO_RX_NACK_RESTART
  4515 ;; This function uses a non-reentrant model
  4516 ;;
  4517                           
  4518                           	psect	text43
  4519  002156                     __ptext43:
  4520                           	callstack 0
  4521  002156                     _I2C1_MasterSendNack:
  4522                           	callstack 24
  4523  002156                     
  4524                           ;mcc_generated_files/i2c1_master.c: 611:     SSP1CON2bits.ACKDT = 1;
  4525  002156  8A96               	bsf	150,5,c	;volatile
  4526                           
  4527                           ;mcc_generated_files/i2c1_master.c: 612:     SSP1CON2bits.ACKEN = 1;
  4528  002158  8896               	bsf	150,4,c	;volatile
  4529  00215A  0012               	return		;funcret
  4530  00215C                     __end_of_I2C1_MasterSendNack:
  4531                           	callstack 0
  4532                           
  4533 ;; *************** function _I2C1_MasterStartRx *****************
  4534 ;; Defined at:
  4535 ;;		line 583 in file "mcc_generated_files/i2c1_master.c"
  4536 ;; Parameters:    Size  Location     Type
  4537 ;;		None
  4538 ;; Auto vars:     Size  Location     Type
  4539 ;;		None
  4540 ;; Return value:  Size  Location     Type
  4541 ;;                  1    wreg      void 
  4542 ;; Registers used:
  4543 ;;		None
  4544 ;; Tracked objects:
  4545 ;;		On entry : 0/0
  4546 ;;		On exit  : 0/0
  4547 ;;		Unchanged: 0/0
  4548 ;; Data sizes:     COMRAM   BANK0   BANK1   BANK2   BANK3   BANK4   BANK5   BANK6   BANK7   BANK8   BANK9  BANK10  BANK1
      +1  BANK12  BANK14
  4549 ;;      Params:         0       0       0       0       0       0       0       0       0       0       0       0       
      +0       0       0
  4550 ;;      Locals:         0       0       0       0       0       0       0       0       0       0       0       0       
      +0       0       0
  4551 ;;      Temps:          0       0       0       0       0       0       0       0       0       0       0       0       
      +0       0       0
  4552 ;;      Totals:         0       0       0       0       0       0       0       0       0       0       0       0       
      +0       0       0
  4553 ;;Total ram usage:        0 bytes
  4554 ;; Hardware stack levels used: 1
  4555 ;; This function calls:
  4556 ;;		Nothing
  4557 ;; This function is called by:
  4558 ;;		_I2C1_DO_RCEN
  4559 ;; This function uses a non-reentrant model
  4560 ;;
  4561                           
  4562                           	psect	text44
  4563  00216C                     __ptext44:
  4564                           	callstack 0
  4565  00216C                     _I2C1_MasterStartRx:
  4566                           	callstack 24
  4567  00216C                     
  4568                           ;mcc_generated_files/i2c1_master.c: 585:     SSP1CON2bits.RCEN = 1;
  4569  00216C  8696               	bsf	150,3,c	;volatile
  4570  00216E  0012               	return		;funcret
  4571  002170                     __end_of_I2C1_MasterStartRx:
  4572                           	callstack 0
  4573                           
  4574 ;; *************** function _I2C1_CallbackReturnReset *****************
  4575 ;; Defined at:
  4576 ;;		line 525 in file "mcc_generated_files/i2c1_master.c"
  4577 ;; Parameters:    Size  Location     Type
  4578 ;;  funPtr          2   11[COMRAM] PTR void 
  4579 ;;		 -> I2C1_ReadDataBlock@bufferBlock(4), I2C1_Write2ByteRegister@data(2), I2C1_Write1ByteRegister@data(1), I2C1_Read2B
      +yteRegister@returnValue(2), 
  4580 ;;		 -> I2C1_Read1ByteRegister@returnValue(1), i2c_readDataBlock@d(4), i2c_write2ByteRegister@data(2), i2c_read2ByteRegi
      +ster@result(2), 
  4581 ;;		 -> i2c_read1ByteRegister@d2(1), i2c_write1ByteRegister@data(1), NULL(0), 
  4582 ;; Auto vars:     Size  Location     Type
  4583 ;;		None
  4584 ;; Return value:  Size  Location     Type
  4585 ;;                  1    wreg      enum E360
  4586 ;; Registers used:
  4587 ;;		wreg
  4588 ;; Tracked objects:
  4589 ;;		On entry : 0/0
  4590 ;;		On exit  : 0/0
  4591 ;;		Unchanged: 0/0
  4592 ;; Data sizes:     COMRAM   BANK0   BANK1   BANK2   BANK3   BANK4   BANK5   BANK6   BANK7   BANK8   BANK9  BANK10  BANK1
      +1  BANK12  BANK14
  4593 ;;      Params:         2       0       0       0       0       0       0       0       0       0       0       0       
      +0       0       0
  4594 ;;      Locals:         0       0       0       0       0       0       0       0       0       0       0       0       
      +0       0       0
  4595 ;;      Temps:          0       0       0       0       0       0       0       0       0       0       0       0       
      +0       0       0
  4596 ;;      Totals:         2       0       0       0       0       0       0       0       0       0       0       0       
      +0       0       0
  4597 ;;Total ram usage:        2 bytes
  4598 ;; Hardware stack levels used: 1
  4599 ;; This function calls:
  4600 ;;		Nothing
  4601 ;; This function is called by:
  4602 ;;		_I2C1_Open
  4603 ;;		_I2C1_DO_TX
  4604 ;;		_I2C1_DO_RX
  4605 ;;		_I2C1_DO_TX_EMPTY
  4606 ;;		_I2C1_DO_ADDRESS_NACK
  4607 ;;		_I2C1_DO_RX_EMPTY
  4608 ;; This function uses a non-reentrant model
  4609 ;;
  4610                           
  4611                           	psect	text45
  4612  002170                     __ptext45:
  4613                           	callstack 0
  4614  002170                     _I2C1_CallbackReturnReset:
  4615                           	callstack 24
  4616  002170                     
  4617                           ;mcc_generated_files/i2c1_master.c: 525: i2c1_operations_t I2C1_CallbackReturnReset(void
      +                           *funPtr);mcc_generated_files/i2c1_master.c: 526: {;mcc_generated_files/i2c1_master.c: 5
      +                          27:     return I2C1_RESET_LINK;
  4618  002170  0E05               	movlw	5
  4619  002172  0012               	return		;funcret
  4620  002174                     __end_of_I2C1_CallbackReturnReset:
  4621                           	callstack 0
  4622                           
  4623 ;; *************** function _I2C1_CallbackReturnStop *****************
  4624 ;; Defined at:
  4625 ;;		line 520 in file "mcc_generated_files/i2c1_master.c"
  4626 ;; Parameters:    Size  Location     Type
  4627 ;;  funPtr          2   11[COMRAM] PTR void 
  4628 ;;		 -> I2C1_ReadDataBlock@bufferBlock(4), I2C1_Write2ByteRegister@data(2), I2C1_Write1ByteRegister@data(1), I2C1_Read2B
      +yteRegister@returnValue(2), 
  4629 ;;		 -> I2C1_Read1ByteRegister@returnValue(1), i2c_readDataBlock@d(4), i2c_write2ByteRegister@data(2), i2c_read2ByteRegi
      +ster@result(2), 
  4630 ;;		 -> i2c_read1ByteRegister@d2(1), i2c_write1ByteRegister@data(1), NULL(0), 
  4631 ;; Auto vars:     Size  Location     Type
  4632 ;;		None
  4633 ;; Return value:  Size  Location     Type
  4634 ;;                  1    wreg      enum E360
  4635 ;; Registers used:
  4636 ;;		wreg
  4637 ;; Tracked objects:
  4638 ;;		On entry : 0/0
  4639 ;;		On exit  : 0/0
  4640 ;;		Unchanged: 0/0
  4641 ;; Data sizes:     COMRAM   BANK0   BANK1   BANK2   BANK3   BANK4   BANK5   BANK6   BANK7   BANK8   BANK9  BANK10  BANK1
      +1  BANK12  BANK14
  4642 ;;      Params:         2       0       0       0       0       0       0       0       0       0       0       0       
      +0       0       0
  4643 ;;      Locals:         0       0       0       0       0       0       0       0       0       0       0       0       
      +0       0       0
  4644 ;;      Temps:          0       0       0       0       0       0       0       0       0       0       0       0       
      +0       0       0
  4645 ;;      Totals:         2       0       0       0       0       0       0       0       0       0       0       0       
      +0       0       0
  4646 ;;Total ram usage:        2 bytes
  4647 ;; Hardware stack levels used: 1
  4648 ;; This function calls:
  4649 ;;		Nothing
  4650 ;; This function is called by:
  4651 ;;		_I2C1_Open
  4652 ;;		_I2C1_SetCallback
  4653 ;;		_I2C1_DO_TX
  4654 ;;		_I2C1_DO_RX
  4655 ;;		_I2C1_DO_TX_EMPTY
  4656 ;;		_I2C1_DO_ADDRESS_NACK
  4657 ;;		_I2C1_DO_RX_EMPTY
  4658 ;; This function uses a non-reentrant model
  4659 ;;
  4660                           
  4661                           	psect	text46
  4662  002174                     __ptext46:
  4663                           	callstack 0
  4664  002174                     _I2C1_CallbackReturnStop:
  4665                           	callstack 24
  4666  002174                     
  4667                           ;mcc_generated_files/i2c1_master.c: 520: i2c1_operations_t I2C1_CallbackReturnStop(void 
      +                          *funPtr);mcc_generated_files/i2c1_master.c: 521: {;mcc_generated_files/i2c1_master.c: 52
      +                          2:     return I2C1_STOP;
  4668  002174  0E01               	movlw	1
  4669  002176  0012               	return		;funcret
  4670  002178                     __end_of_I2C1_CallbackReturnStop:
  4671                           	callstack 0
  4672                           
  4673 ;; *************** function _rdBlkRegCompleteHandler@i2c1_master_example$F179 *****************
  4674 ;; Defined at:
  4675 ;;		line 170 in file "mcc_generated_files/examples/i2c1_master_example.c"
  4676 ;; Parameters:    Size  Location     Type
  4677 ;;  ptr             2   11[COMRAM] PTR void 
  4678 ;;		 -> I2C1_ReadDataBlock@bufferBlock(4), I2C1_Write2ByteRegister@data(2), I2C1_Write1ByteRegister@data(1), I2C1_Read2B
      +yteRegister@returnValue(2), 
  4679 ;;		 -> I2C1_Read1ByteRegister@returnValue(1), i2c_readDataBlock@d(4), i2c_write2ByteRegister@data(2), i2c_read2ByteRegi
      +ster@result(2), 
  4680 ;;		 -> i2c_read1ByteRegister@d2(1), i2c_write1ByteRegister@data(1), NULL(0), 
  4681 ;; Auto vars:     Size  Location     Type
  4682 ;;		None
  4683 ;; Return value:  Size  Location     Type
  4684 ;;                  1    wreg      enum E360
  4685 ;; Registers used:
  4686 ;;		wreg, fsr2l, fsr2h, status,2, status,0, prodl, prodh, cstack
  4687 ;; Tracked objects:
  4688 ;;		On entry : 0/0
  4689 ;;		On exit  : 0/0
  4690 ;;		Unchanged: 0/0
  4691 ;; Data sizes:     COMRAM   BANK0   BANK1   BANK2   BANK3   BANK4   BANK5   BANK6   BANK7   BANK8   BANK9  BANK10  BANK1
      +1  BANK12  BANK14
  4692 ;;      Params:         2       0       0       0       0       0       0       0       0       0       0       0       
      +0       0       0
  4693 ;;      Locals:         0       0       0       0       0       0       0       0       0       0       0       0       
      +0       0       0
  4694 ;;      Temps:          0       0       0       0       0       0       0       0       0       0       0       0       
      +0       0       0
  4695 ;;      Totals:         2       0       0       0       0       0       0       0       0       0       0       0       
      +0       0       0
  4696 ;;Total ram usage:        2 bytes
  4697 ;; Hardware stack levels used: 1
  4698 ;; Hardware stack levels required when called: 2
  4699 ;; This function calls:
  4700 ;;		_I2C1_SetBuffer
  4701 ;;		_I2C1_SetDataCompleteCallback
  4702 ;; This function is called by:
  4703 ;;		_I2C1_ReadDataBlock
  4704 ;;		_I2C1_DO_TX
  4705 ;;		_I2C1_DO_RX
  4706 ;;		_I2C1_DO_TX_EMPTY
  4707 ;;		_I2C1_DO_ADDRESS_NACK
  4708 ;;		_I2C1_DO_RX_EMPTY
  4709 ;; This function uses a non-reentrant model
  4710 ;;
  4711                           
  4712                           	psect	text47
  4713  001CB0                     __ptext47:
  4714                           	callstack 0
  4715  001CB0                     _rdBlkRegCompleteHandler@i2c1_master_example$F179:
  4716                           	callstack 22
  4717  001CB0                     
  4718                           ;mcc_generated_files/examples/i2c1_master_example.c: 170: static i2c1_operations_t rdBlk
      +                          RegCompleteHandler(void *ptr);mcc_generated_files/examples/i2c1_master_example.c: 171: {
      +                          ;mcc_generated_files/examples/i2c1_master_example.c: 172:     I2C1_SetBuffer(((i2c1_buff
      +                          er_t *)ptr)->data,((i2c1_buffer_t*)ptr)->len);
  4719  001CB0  EE20 F002          	lfsr	2,2
  4720  001CB4  500C               	movf	rdBlkRegCompleteHandler@i2c1_master_example$F179@ptr^0,w,c
  4721  001CB6  26D9               	addwf	fsr2l,f,c
  4722  001CB8  500D               	movf	(rdBlkRegCompleteHandler@i2c1_master_example$F179@ptr+1)^0,w,c
  4723  001CBA  22DA               	addwfc	fsr2h,f,c
  4724  001CBC  CFDE F001          	movff	postinc2,I2C1_SetBuffer@buffer
  4725  001CC0  CFDD F002          	movff	postdec2,I2C1_SetBuffer@buffer+1
  4726  001CC4  C00C  FFD9         	movff	rdBlkRegCompleteHandler@i2c1_master_example$F179@ptr,fsr2l
  4727  001CC8  C00D  FFDA         	movff	rdBlkRegCompleteHandler@i2c1_master_example$F179@ptr+1,fsr2h
  4728  001CCC  CFDE F003          	movff	postinc2,I2C1_SetBuffer@bufferSize
  4729  001CD0  CFDD F004          	movff	postdec2,I2C1_SetBuffer@bufferSize+1
  4730  001CD4  ECA0  F00F         	call	_I2C1_SetBuffer	;wreg free
  4731  001CD8                     
  4732                           ;mcc_generated_files/examples/i2c1_master_example.c: 173:     I2C1_SetDataCompleteCallba
      +                          ck(((void*)0),((void*)0));
  4733  001CD8  0E00               	movlw	0
  4734  001CDA  6E07               	movwf	I2C1_SetDataCompleteCallback@cb^0,c
  4735  001CDC  0E00               	movlw	0
  4736  001CDE  6E08               	movwf	(I2C1_SetDataCompleteCallback@cb+1)^0,c
  4737  001CE0  0E00               	movlw	0
  4738  001CE2  6E09               	movwf	(I2C1_SetDataCompleteCallback@cb+2)^0,c
  4739  001CE4  0E00               	movlw	0
  4740  001CE6  6E0A               	movwf	I2C1_SetDataCompleteCallback@ptr^0,c
  4741  001CE8  0E00               	movlw	0
  4742  001CEA  6E0B               	movwf	(I2C1_SetDataCompleteCallback@ptr+1)^0,c
  4743  001CEC  ECE0  F00F         	call	_I2C1_SetDataCompleteCallback	;wreg free
  4744  001CF0                     
  4745                           ;mcc_generated_files/examples/i2c1_master_example.c: 174:     return I2C1_RESTART_READ;
  4746  001CF0  0E02               	movlw	2
  4747  001CF2  0012               	return		;funcret
  4748  001CF4                     __end_of_rdBlkRegCompleteHandler@i2c1_master_example$F179:
  4749                           	callstack 0
  4750                           
  4751 ;; *************** function _wr1RegCompleteHandler@i2c1_master_example$F162 *****************
  4752 ;; Defined at:
  4753 ;;		line 156 in file "mcc_generated_files/examples/i2c1_master_example.c"
  4754 ;; Parameters:    Size  Location     Type
  4755 ;;  ptr             2   11[COMRAM] PTR void 
  4756 ;;		 -> I2C1_ReadDataBlock@bufferBlock(4), I2C1_Write2ByteRegister@data(2), I2C1_Write1ByteRegister@data(1), I2C1_Read2B
      +yteRegister@returnValue(2), 
  4757 ;;		 -> I2C1_Read1ByteRegister@returnValue(1), i2c_readDataBlock@d(4), i2c_write2ByteRegister@data(2), i2c_read2ByteRegi
      +ster@result(2), 
  4758 ;;		 -> i2c_read1ByteRegister@d2(1), i2c_write1ByteRegister@data(1), NULL(0), 
  4759 ;; Auto vars:     Size  Location     Type
  4760 ;;		None
  4761 ;; Return value:  Size  Location     Type
  4762 ;;                  1    wreg      enum E360
  4763 ;; Registers used:
  4764 ;;		wreg, fsr2l, fsr2h, status,2, status,0, prodl, prodh, cstack
  4765 ;; Tracked objects:
  4766 ;;		On entry : 0/0
  4767 ;;		On exit  : 0/0
  4768 ;;		Unchanged: 0/0
  4769 ;; Data sizes:     COMRAM   BANK0   BANK1   BANK2   BANK3   BANK4   BANK5   BANK6   BANK7   BANK8   BANK9  BANK10  BANK1
      +1  BANK12  BANK14
  4770 ;;      Params:         2       0       0       0       0       0       0       0       0       0       0       0       
      +0       0       0
  4771 ;;      Locals:         0       0       0       0       0       0       0       0       0       0       0       0       
      +0       0       0
  4772 ;;      Temps:          0       0       0       0       0       0       0       0       0       0       0       0       
      +0       0       0
  4773 ;;      Totals:         2       0       0       0       0       0       0       0       0       0       0       0       
      +0       0       0
  4774 ;;Total ram usage:        2 bytes
  4775 ;; Hardware stack levels used: 1
  4776 ;; Hardware stack levels required when called: 2
  4777 ;; This function calls:
  4778 ;;		_I2C1_SetBuffer
  4779 ;;		_I2C1_SetDataCompleteCallback
  4780 ;; This function is called by:
  4781 ;;		_I2C1_Write1ByteRegister
  4782 ;;		_I2C1_DO_TX
  4783 ;;		_I2C1_DO_RX
  4784 ;;		_I2C1_DO_TX_EMPTY
  4785 ;;		_I2C1_DO_ADDRESS_NACK
  4786 ;;		_I2C1_DO_RX_EMPTY
  4787 ;; This function uses a non-reentrant model
  4788 ;;
  4789                           
  4790                           	psect	text48
  4791  001D6E                     __ptext48:
  4792                           	callstack 0
  4793  001D6E                     _wr1RegCompleteHandler@i2c1_master_example$F162:
  4794                           	callstack 22
  4795  001D6E                     
  4796                           ;mcc_generated_files/examples/i2c1_master_example.c: 156: static i2c1_operations_t wr1Re
      +                          gCompleteHandler(void *ptr);mcc_generated_files/examples/i2c1_master_example.c: 157: {;m
      +                          cc_generated_files/examples/i2c1_master_example.c: 158:     I2C1_SetBuffer(ptr,1);
  4797  001D6E  C00C  F001         	movff	wr1RegCompleteHandler@i2c1_master_example$F162@ptr,I2C1_SetBuffer@buffer
  4798  001D72  C00D  F002         	movff	wr1RegCompleteHandler@i2c1_master_example$F162@ptr+1,I2C1_SetBuffer@buffer+1
  4799  001D76  0E00               	movlw	0
  4800  001D78  6E04               	movwf	(I2C1_SetBuffer@bufferSize+1)^0,c
  4801  001D7A  0E01               	movlw	1
  4802  001D7C  6E03               	movwf	I2C1_SetBuffer@bufferSize^0,c
  4803  001D7E  ECA0  F00F         	call	_I2C1_SetBuffer	;wreg free
  4804  001D82                     
  4805                           ;mcc_generated_files/examples/i2c1_master_example.c: 159:     I2C1_SetDataCompleteCallba
      +                          ck(((void*)0),((void*)0));
  4806  001D82  0E00               	movlw	0
  4807  001D84  6E07               	movwf	I2C1_SetDataCompleteCallback@cb^0,c
  4808  001D86  0E00               	movlw	0
  4809  001D88  6E08               	movwf	(I2C1_SetDataCompleteCallback@cb+1)^0,c
  4810  001D8A  0E00               	movlw	0
  4811  001D8C  6E09               	movwf	(I2C1_SetDataCompleteCallback@cb+2)^0,c
  4812  001D8E  0E00               	movlw	0
  4813  001D90  6E0A               	movwf	I2C1_SetDataCompleteCallback@ptr^0,c
  4814  001D92  0E00               	movlw	0
  4815  001D94  6E0B               	movwf	(I2C1_SetDataCompleteCallback@ptr+1)^0,c
  4816  001D96  ECE0  F00F         	call	_I2C1_SetDataCompleteCallback	;wreg free
  4817  001D9A                     
  4818                           ;mcc_generated_files/examples/i2c1_master_example.c: 160:     return I2C1_CONTINUE;
  4819  001D9A  0E04               	movlw	4
  4820  001D9C  0012               	return		;funcret
  4821  001D9E                     __end_of_wr1RegCompleteHandler@i2c1_master_example$F162:
  4822                           	callstack 0
  4823                           
  4824 ;; *************** function _rd2RegCompleteHandler@i2c1_master_example$F156 *****************
  4825 ;; Defined at:
  4826 ;;		line 149 in file "mcc_generated_files/examples/i2c1_master_example.c"
  4827 ;; Parameters:    Size  Location     Type
  4828 ;;  ptr             2   11[COMRAM] PTR void 
  4829 ;;		 -> I2C1_ReadDataBlock@bufferBlock(4), I2C1_Write2ByteRegister@data(2), I2C1_Write1ByteRegister@data(1), I2C1_Read2B
      +yteRegister@returnValue(2), 
  4830 ;;		 -> I2C1_Read1ByteRegister@returnValue(1), i2c_readDataBlock@d(4), i2c_write2ByteRegister@data(2), i2c_read2ByteRegi
      +ster@result(2), 
  4831 ;;		 -> i2c_read1ByteRegister@d2(1), i2c_write1ByteRegister@data(1), NULL(0), 
  4832 ;; Auto vars:     Size  Location     Type
  4833 ;;		None
  4834 ;; Return value:  Size  Location     Type
  4835 ;;                  1    wreg      enum E360
  4836 ;; Registers used:
  4837 ;;		wreg, fsr2l, fsr2h, status,2, status,0, prodl, prodh, cstack
  4838 ;; Tracked objects:
  4839 ;;		On entry : 0/0
  4840 ;;		On exit  : 0/0
  4841 ;;		Unchanged: 0/0
  4842 ;; Data sizes:     COMRAM   BANK0   BANK1   BANK2   BANK3   BANK4   BANK5   BANK6   BANK7   BANK8   BANK9  BANK10  BANK1
      +1  BANK12  BANK14
  4843 ;;      Params:         2       0       0       0       0       0       0       0       0       0       0       0       
      +0       0       0
  4844 ;;      Locals:         0       0       0       0       0       0       0       0       0       0       0       0       
      +0       0       0
  4845 ;;      Temps:          0       0       0       0       0       0       0       0       0       0       0       0       
      +0       0       0
  4846 ;;      Totals:         2       0       0       0       0       0       0       0       0       0       0       0       
      +0       0       0
  4847 ;;Total ram usage:        2 bytes
  4848 ;; Hardware stack levels used: 1
  4849 ;; Hardware stack levels required when called: 2
  4850 ;; This function calls:
  4851 ;;		_I2C1_SetBuffer
  4852 ;;		_I2C1_SetDataCompleteCallback
  4853 ;; This function is called by:
  4854 ;;		_I2C1_Read2ByteRegister
  4855 ;;		_I2C1_DO_TX
  4856 ;;		_I2C1_DO_RX
  4857 ;;		_I2C1_DO_TX_EMPTY
  4858 ;;		_I2C1_DO_ADDRESS_NACK
  4859 ;;		_I2C1_DO_RX_EMPTY
  4860 ;; This function uses a non-reentrant model
  4861 ;;
  4862                           
  4863                           	psect	text49
  4864  001D9E                     __ptext49:
  4865                           	callstack 0
  4866  001D9E                     _rd2RegCompleteHandler@i2c1_master_example$F156:
  4867                           	callstack 22
  4868  001D9E                     
  4869                           ;mcc_generated_files/examples/i2c1_master_example.c: 149: static i2c1_operations_t rd2Re
      +                          gCompleteHandler(void *ptr);mcc_generated_files/examples/i2c1_master_example.c: 150: {;m
      +                          cc_generated_files/examples/i2c1_master_example.c: 151:     I2C1_SetBuffer(ptr,2);
  4870  001D9E  C00C  F001         	movff	rd2RegCompleteHandler@i2c1_master_example$F156@ptr,I2C1_SetBuffer@buffer
  4871  001DA2  C00D  F002         	movff	rd2RegCompleteHandler@i2c1_master_example$F156@ptr+1,I2C1_SetBuffer@buffer+1
  4872  001DA6  0E00               	movlw	0
  4873  001DA8  6E04               	movwf	(I2C1_SetBuffer@bufferSize+1)^0,c
  4874  001DAA  0E02               	movlw	2
  4875  001DAC  6E03               	movwf	I2C1_SetBuffer@bufferSize^0,c
  4876  001DAE  ECA0  F00F         	call	_I2C1_SetBuffer	;wreg free
  4877  001DB2                     
  4878                           ;mcc_generated_files/examples/i2c1_master_example.c: 152:     I2C1_SetDataCompleteCallba
      +                          ck(((void*)0),((void*)0));
  4879  001DB2  0E00               	movlw	0
  4880  001DB4  6E07               	movwf	I2C1_SetDataCompleteCallback@cb^0,c
  4881  001DB6  0E00               	movlw	0
  4882  001DB8  6E08               	movwf	(I2C1_SetDataCompleteCallback@cb+1)^0,c
  4883  001DBA  0E00               	movlw	0
  4884  001DBC  6E09               	movwf	(I2C1_SetDataCompleteCallback@cb+2)^0,c
  4885  001DBE  0E00               	movlw	0
  4886  001DC0  6E0A               	movwf	I2C1_SetDataCompleteCallback@ptr^0,c
  4887  001DC2  0E00               	movlw	0
  4888  001DC4  6E0B               	movwf	(I2C1_SetDataCompleteCallback@ptr+1)^0,c
  4889  001DC6  ECE0  F00F         	call	_I2C1_SetDataCompleteCallback	;wreg free
  4890  001DCA                     
  4891                           ;mcc_generated_files/examples/i2c1_master_example.c: 153:     return I2C1_RESTART_READ;
  4892  001DCA  0E02               	movlw	2
  4893  001DCC  0012               	return		;funcret
  4894  001DCE                     __end_of_rd2RegCompleteHandler@i2c1_master_example$F156:
  4895                           	callstack 0
  4896                           
  4897 ;; *************** function _rd1RegCompleteHandler@i2c1_master_example$F145 *****************
  4898 ;; Defined at:
  4899 ;;		line 142 in file "mcc_generated_files/examples/i2c1_master_example.c"
  4900 ;; Parameters:    Size  Location     Type
  4901 ;;  ptr             2   11[COMRAM] PTR void 
  4902 ;;		 -> I2C1_ReadDataBlock@bufferBlock(4), I2C1_Write2ByteRegister@data(2), I2C1_Write1ByteRegister@data(1), I2C1_Read2B
      +yteRegister@returnValue(2), 
  4903 ;;		 -> I2C1_Read1ByteRegister@returnValue(1), i2c_readDataBlock@d(4), i2c_write2ByteRegister@data(2), i2c_read2ByteRegi
      +ster@result(2), 
  4904 ;;		 -> i2c_read1ByteRegister@d2(1), i2c_write1ByteRegister@data(1), NULL(0), 
  4905 ;; Auto vars:     Size  Location     Type
  4906 ;;		None
  4907 ;; Return value:  Size  Location     Type
  4908 ;;                  1    wreg      enum E360
  4909 ;; Registers used:
  4910 ;;		wreg, fsr2l, fsr2h, status,2, status,0, prodl, prodh, cstack
  4911 ;; Tracked objects:
  4912 ;;		On entry : 0/0
  4913 ;;		On exit  : 0/0
  4914 ;;		Unchanged: 0/0
  4915 ;; Data sizes:     COMRAM   BANK0   BANK1   BANK2   BANK3   BANK4   BANK5   BANK6   BANK7   BANK8   BANK9  BANK10  BANK1
      +1  BANK12  BANK14
  4916 ;;      Params:         2       0       0       0       0       0       0       0       0       0       0       0       
      +0       0       0
  4917 ;;      Locals:         0       0       0       0       0       0       0       0       0       0       0       0       
      +0       0       0
  4918 ;;      Temps:          0       0       0       0       0       0       0       0       0       0       0       0       
      +0       0       0
  4919 ;;      Totals:         2       0       0       0       0       0       0       0       0       0       0       0       
      +0       0       0
  4920 ;;Total ram usage:        2 bytes
  4921 ;; Hardware stack levels used: 1
  4922 ;; Hardware stack levels required when called: 2
  4923 ;; This function calls:
  4924 ;;		_I2C1_SetBuffer
  4925 ;;		_I2C1_SetDataCompleteCallback
  4926 ;; This function is called by:
  4927 ;;		_I2C1_Read1ByteRegister
  4928 ;;		_I2C1_DO_TX
  4929 ;;		_I2C1_DO_RX
  4930 ;;		_I2C1_DO_TX_EMPTY
  4931 ;;		_I2C1_DO_ADDRESS_NACK
  4932 ;;		_I2C1_DO_RX_EMPTY
  4933 ;; This function uses a non-reentrant model
  4934 ;;
  4935                           
  4936                           	psect	text50
  4937  001DCE                     __ptext50:
  4938                           	callstack 0
  4939  001DCE                     _rd1RegCompleteHandler@i2c1_master_example$F145:
  4940                           	callstack 22
  4941  001DCE                     
  4942                           ;mcc_generated_files/examples/i2c1_master_example.c: 142: static i2c1_operations_t rd1Re
      +                          gCompleteHandler(void *ptr);mcc_generated_files/examples/i2c1_master_example.c: 143: {;m
      +                          cc_generated_files/examples/i2c1_master_example.c: 144:     I2C1_SetBuffer(ptr,1);
  4943  001DCE  C00C  F001         	movff	rd1RegCompleteHandler@i2c1_master_example$F145@ptr,I2C1_SetBuffer@buffer
  4944  001DD2  C00D  F002         	movff	rd1RegCompleteHandler@i2c1_master_example$F145@ptr+1,I2C1_SetBuffer@buffer+1
  4945  001DD6  0E00               	movlw	0
  4946  001DD8  6E04               	movwf	(I2C1_SetBuffer@bufferSize+1)^0,c
  4947  001DDA  0E01               	movlw	1
  4948  001DDC  6E03               	movwf	I2C1_SetBuffer@bufferSize^0,c
  4949  001DDE  ECA0  F00F         	call	_I2C1_SetBuffer	;wreg free
  4950  001DE2                     
  4951                           ;mcc_generated_files/examples/i2c1_master_example.c: 145:     I2C1_SetDataCompleteCallba
      +                          ck(((void*)0),((void*)0));
  4952  001DE2  0E00               	movlw	0
  4953  001DE4  6E07               	movwf	I2C1_SetDataCompleteCallback@cb^0,c
  4954  001DE6  0E00               	movlw	0
  4955  001DE8  6E08               	movwf	(I2C1_SetDataCompleteCallback@cb+1)^0,c
  4956  001DEA  0E00               	movlw	0
  4957  001DEC  6E09               	movwf	(I2C1_SetDataCompleteCallback@cb+2)^0,c
  4958  001DEE  0E00               	movlw	0
  4959  001DF0  6E0A               	movwf	I2C1_SetDataCompleteCallback@ptr^0,c
  4960  001DF2  0E00               	movlw	0
  4961  001DF4  6E0B               	movwf	(I2C1_SetDataCompleteCallback@ptr+1)^0,c
  4962  001DF6  ECE0  F00F         	call	_I2C1_SetDataCompleteCallback	;wreg free
  4963  001DFA                     
  4964                           ;mcc_generated_files/examples/i2c1_master_example.c: 146:     return I2C1_RESTART_READ;
  4965  001DFA  0E02               	movlw	2
  4966  001DFC  0012               	return		;funcret
  4967  001DFE                     __end_of_rd1RegCompleteHandler@i2c1_master_example$F145:
  4968                           	callstack 0
  4969                           
  4970 ;; *************** function _rdBlkRegCompleteHandler *****************
  4971 ;; Defined at:
  4972 ;;		line 185 in file "mcc_generated_files/drivers/i2c_simple_master.c"
  4973 ;; Parameters:    Size  Location     Type
  4974 ;;  p               2   11[COMRAM] PTR void 
  4975 ;;		 -> I2C1_ReadDataBlock@bufferBlock(4), I2C1_Write2ByteRegister@data(2), I2C1_Write1ByteRegister@data(1), I2C1_Read2B
      +yteRegister@returnValue(2), 
  4976 ;;		 -> I2C1_Read1ByteRegister@returnValue(1), i2c_readDataBlock@d(4), i2c_write2ByteRegister@data(2), i2c_read2ByteRegi
      +ster@result(2), 
  4977 ;;		 -> i2c_read1ByteRegister@d2(1), i2c_write1ByteRegister@data(1), NULL(0), 
  4978 ;; Auto vars:     Size  Location     Type
  4979 ;;		None
  4980 ;; Return value:  Size  Location     Type
  4981 ;;                  1    wreg      enum E360
  4982 ;; Registers used:
  4983 ;;		wreg, fsr2l, fsr2h, status,2, status,0, prodl, prodh, cstack
  4984 ;; Tracked objects:
  4985 ;;		On entry : 0/0
  4986 ;;		On exit  : 0/0
  4987 ;;		Unchanged: 0/0
  4988 ;; Data sizes:     COMRAM   BANK0   BANK1   BANK2   BANK3   BANK4   BANK5   BANK6   BANK7   BANK8   BANK9  BANK10  BANK1
      +1  BANK12  BANK14
  4989 ;;      Params:         2       0       0       0       0       0       0       0       0       0       0       0       
      +0       0       0
  4990 ;;      Locals:         0       0       0       0       0       0       0       0       0       0       0       0       
      +0       0       0
  4991 ;;      Temps:          0       0       0       0       0       0       0       0       0       0       0       0       
      +0       0       0
  4992 ;;      Totals:         2       0       0       0       0       0       0       0       0       0       0       0       
      +0       0       0
  4993 ;;Total ram usage:        2 bytes
  4994 ;; Hardware stack levels used: 1
  4995 ;; Hardware stack levels required when called: 2
  4996 ;; This function calls:
  4997 ;;		_I2C1_SetBuffer
  4998 ;;		_I2C1_SetDataCompleteCallback
  4999 ;; This function is called by:
  5000 ;;		_i2c_readDataBlock
  5001 ;;		_I2C1_DO_TX
  5002 ;;		_I2C1_DO_RX
  5003 ;;		_I2C1_DO_TX_EMPTY
  5004 ;;		_I2C1_DO_ADDRESS_NACK
  5005 ;;		_I2C1_DO_RX_EMPTY
  5006 ;; This function uses a non-reentrant model
  5007 ;;
  5008                           
  5009                           	psect	text51
  5010  001CF4                     __ptext51:
  5011                           	callstack 0
  5012  001CF4                     _rdBlkRegCompleteHandler:
  5013                           	callstack 22
  5014  001CF4                     
  5015                           ;mcc_generated_files/drivers/i2c_simple_master.c: 185: static i2c1_operations_t rdBlkReg
      +                          CompleteHandler(void *p);mcc_generated_files/drivers/i2c_simple_master.c: 186: {;mcc_gen
      +                          erated_files/drivers/i2c_simple_master.c: 187:     I2C1_SetBuffer(((buf_t *)p)->data,((b
      +                          uf_t*)p)->len);
  5016  001CF4  EE20 F002          	lfsr	2,2
  5017  001CF8  500C               	movf	rdBlkRegCompleteHandler@p^0,w,c
  5018  001CFA  26D9               	addwf	fsr2l,f,c
  5019  001CFC  500D               	movf	(rdBlkRegCompleteHandler@p+1)^0,w,c
  5020  001CFE  22DA               	addwfc	fsr2h,f,c
  5021  001D00  CFDE F001          	movff	postinc2,I2C1_SetBuffer@buffer
  5022  001D04  CFDD F002          	movff	postdec2,I2C1_SetBuffer@buffer+1
  5023  001D08  C00C  FFD9         	movff	rdBlkRegCompleteHandler@p,fsr2l
  5024  001D0C  C00D  FFDA         	movff	rdBlkRegCompleteHandler@p+1,fsr2h
  5025  001D10  CFDE F003          	movff	postinc2,I2C1_SetBuffer@bufferSize
  5026  001D14  CFDD F004          	movff	postdec2,I2C1_SetBuffer@bufferSize+1
  5027  001D18  ECA0  F00F         	call	_I2C1_SetBuffer	;wreg free
  5028  001D1C                     
  5029                           ;mcc_generated_files/drivers/i2c_simple_master.c: 188:     I2C1_SetDataCompleteCallback(
      +                          ((void*)0),((void*)0));
  5030  001D1C  0E00               	movlw	0
  5031  001D1E  6E07               	movwf	I2C1_SetDataCompleteCallback@cb^0,c
  5032  001D20  0E00               	movlw	0
  5033  001D22  6E08               	movwf	(I2C1_SetDataCompleteCallback@cb+1)^0,c
  5034  001D24  0E00               	movlw	0
  5035  001D26  6E09               	movwf	(I2C1_SetDataCompleteCallback@cb+2)^0,c
  5036  001D28  0E00               	movlw	0
  5037  001D2A  6E0A               	movwf	I2C1_SetDataCompleteCallback@ptr^0,c
  5038  001D2C  0E00               	movlw	0
  5039  001D2E  6E0B               	movwf	(I2C1_SetDataCompleteCallback@ptr+1)^0,c
  5040  001D30  ECE0  F00F         	call	_I2C1_SetDataCompleteCallback	;wreg free
  5041  001D34                     
  5042                           ;mcc_generated_files/drivers/i2c_simple_master.c: 189:     return I2C1_RESTART_READ;
  5043  001D34  0E02               	movlw	2
  5044  001D36  0012               	return		;funcret
  5045  001D38                     __end_of_rdBlkRegCompleteHandler:
  5046                           	callstack 0
  5047                           
  5048 ;; *************** function _wr2RegCompleteHandler *****************
  5049 ;; Defined at:
  5050 ;;		line 151 in file "mcc_generated_files/drivers/i2c_simple_master.c"
  5051 ;; Parameters:    Size  Location     Type
  5052 ;;  p               2   11[COMRAM] PTR void 
  5053 ;;		 -> I2C1_ReadDataBlock@bufferBlock(4), I2C1_Write2ByteRegister@data(2), I2C1_Write1ByteRegister@data(1), I2C1_Read2B
      +yteRegister@returnValue(2), 
  5054 ;;		 -> I2C1_Read1ByteRegister@returnValue(1), i2c_readDataBlock@d(4), i2c_write2ByteRegister@data(2), i2c_read2ByteRegi
      +ster@result(2), 
  5055 ;;		 -> i2c_read1ByteRegister@d2(1), i2c_write1ByteRegister@data(1), NULL(0), 
  5056 ;; Auto vars:     Size  Location     Type
  5057 ;;		None
  5058 ;; Return value:  Size  Location     Type
  5059 ;;                  1    wreg      enum E360
  5060 ;; Registers used:
  5061 ;;		wreg, fsr2l, fsr2h, status,2, status,0, prodl, prodh, cstack
  5062 ;; Tracked objects:
  5063 ;;		On entry : 0/0
  5064 ;;		On exit  : 0/0
  5065 ;;		Unchanged: 0/0
  5066 ;; Data sizes:     COMRAM   BANK0   BANK1   BANK2   BANK3   BANK4   BANK5   BANK6   BANK7   BANK8   BANK9  BANK10  BANK1
      +1  BANK12  BANK14
  5067 ;;      Params:         2       0       0       0       0       0       0       0       0       0       0       0       
      +0       0       0
  5068 ;;      Locals:         0       0       0       0       0       0       0       0       0       0       0       0       
      +0       0       0
  5069 ;;      Temps:          0       0       0       0       0       0       0       0       0       0       0       0       
      +0       0       0
  5070 ;;      Totals:         2       0       0       0       0       0       0       0       0       0       0       0       
      +0       0       0
  5071 ;;Total ram usage:        2 bytes
  5072 ;; Hardware stack levels used: 1
  5073 ;; Hardware stack levels required when called: 2
  5074 ;; This function calls:
  5075 ;;		_I2C1_SetBuffer
  5076 ;;		_I2C1_SetDataCompleteCallback
  5077 ;; This function is called by:
  5078 ;;		_i2c_write2ByteRegister
  5079 ;;		_I2C1_DO_TX
  5080 ;;		_I2C1_DO_RX
  5081 ;;		_I2C1_DO_TX_EMPTY
  5082 ;;		_I2C1_DO_ADDRESS_NACK
  5083 ;;		_I2C1_DO_RX_EMPTY
  5084 ;; This function uses a non-reentrant model
  5085 ;;
  5086                           
  5087                           	psect	text52
  5088  001DFE                     __ptext52:
  5089                           	callstack 0
  5090  001DFE                     _wr2RegCompleteHandler:
  5091                           	callstack 22
  5092  001DFE                     
  5093                           ;mcc_generated_files/drivers/i2c_simple_master.c: 151: static i2c1_operations_t wr2RegCo
      +                          mpleteHandler(void *p);mcc_generated_files/drivers/i2c_simple_master.c: 152: {;mcc_gener
      +                          ated_files/drivers/i2c_simple_master.c: 153:     I2C1_SetBuffer(p,2);
  5094  001DFE  C00C  F001         	movff	wr2RegCompleteHandler@p,I2C1_SetBuffer@buffer
  5095  001E02  C00D  F002         	movff	wr2RegCompleteHandler@p+1,I2C1_SetBuffer@buffer+1
  5096  001E06  0E00               	movlw	0
  5097  001E08  6E04               	movwf	(I2C1_SetBuffer@bufferSize+1)^0,c
  5098  001E0A  0E02               	movlw	2
  5099  001E0C  6E03               	movwf	I2C1_SetBuffer@bufferSize^0,c
  5100  001E0E  ECA0  F00F         	call	_I2C1_SetBuffer	;wreg free
  5101  001E12                     
  5102                           ;mcc_generated_files/drivers/i2c_simple_master.c: 154:     I2C1_SetDataCompleteCallback(
      +                          ((void*)0),((void*)0));
  5103  001E12  0E00               	movlw	0
  5104  001E14  6E07               	movwf	I2C1_SetDataCompleteCallback@cb^0,c
  5105  001E16  0E00               	movlw	0
  5106  001E18  6E08               	movwf	(I2C1_SetDataCompleteCallback@cb+1)^0,c
  5107  001E1A  0E00               	movlw	0
  5108  001E1C  6E09               	movwf	(I2C1_SetDataCompleteCallback@cb+2)^0,c
  5109  001E1E  0E00               	movlw	0
  5110  001E20  6E0A               	movwf	I2C1_SetDataCompleteCallback@ptr^0,c
  5111  001E22  0E00               	movlw	0
  5112  001E24  6E0B               	movwf	(I2C1_SetDataCompleteCallback@ptr+1)^0,c
  5113  001E26  ECE0  F00F         	call	_I2C1_SetDataCompleteCallback	;wreg free
  5114  001E2A                     
  5115                           ;mcc_generated_files/drivers/i2c_simple_master.c: 155:     return I2C1_CONTINUE;
  5116  001E2A  0E04               	movlw	4
  5117  001E2C  0012               	return		;funcret
  5118  001E2E                     __end_of_wr2RegCompleteHandler:
  5119                           	callstack 0
  5120                           
  5121 ;; *************** function _rd2RegCompleteHandler *****************
  5122 ;; Defined at:
  5123 ;;		line 119 in file "mcc_generated_files/drivers/i2c_simple_master.c"
  5124 ;; Parameters:    Size  Location     Type
  5125 ;;  p               2   11[COMRAM] PTR void 
  5126 ;;		 -> I2C1_ReadDataBlock@bufferBlock(4), I2C1_Write2ByteRegister@data(2), I2C1_Write1ByteRegister@data(1), I2C1_Read2B
      +yteRegister@returnValue(2), 
  5127 ;;		 -> I2C1_Read1ByteRegister@returnValue(1), i2c_readDataBlock@d(4), i2c_write2ByteRegister@data(2), i2c_read2ByteRegi
      +ster@result(2), 
  5128 ;;		 -> i2c_read1ByteRegister@d2(1), i2c_write1ByteRegister@data(1), NULL(0), 
  5129 ;; Auto vars:     Size  Location     Type
  5130 ;;		None
  5131 ;; Return value:  Size  Location     Type
  5132 ;;                  1    wreg      enum E360
  5133 ;; Registers used:
  5134 ;;		wreg, fsr2l, fsr2h, status,2, status,0, prodl, prodh, cstack
  5135 ;; Tracked objects:
  5136 ;;		On entry : 0/0
  5137 ;;		On exit  : 0/0
  5138 ;;		Unchanged: 0/0
  5139 ;; Data sizes:     COMRAM   BANK0   BANK1   BANK2   BANK3   BANK4   BANK5   BANK6   BANK7   BANK8   BANK9  BANK10  BANK1
      +1  BANK12  BANK14
  5140 ;;      Params:         2       0       0       0       0       0       0       0       0       0       0       0       
      +0       0       0
  5141 ;;      Locals:         0       0       0       0       0       0       0       0       0       0       0       0       
      +0       0       0
  5142 ;;      Temps:          0       0       0       0       0       0       0       0       0       0       0       0       
      +0       0       0
  5143 ;;      Totals:         2       0       0       0       0       0       0       0       0       0       0       0       
      +0       0       0
  5144 ;;Total ram usage:        2 bytes
  5145 ;; Hardware stack levels used: 1
  5146 ;; Hardware stack levels required when called: 2
  5147 ;; This function calls:
  5148 ;;		_I2C1_SetBuffer
  5149 ;;		_I2C1_SetDataCompleteCallback
  5150 ;; This function is called by:
  5151 ;;		_i2c_read2ByteRegister
  5152 ;;		_I2C1_DO_TX
  5153 ;;		_I2C1_DO_RX
  5154 ;;		_I2C1_DO_TX_EMPTY
  5155 ;;		_I2C1_DO_ADDRESS_NACK
  5156 ;;		_I2C1_DO_RX_EMPTY
  5157 ;; This function uses a non-reentrant model
  5158 ;;
  5159                           
  5160                           	psect	text53
  5161  001E2E                     __ptext53:
  5162                           	callstack 0
  5163  001E2E                     _rd2RegCompleteHandler:
  5164                           	callstack 22
  5165  001E2E                     
  5166                           ;mcc_generated_files/drivers/i2c_simple_master.c: 119: static i2c1_operations_t rd2RegCo
      +                          mpleteHandler(void *p);mcc_generated_files/drivers/i2c_simple_master.c: 120: {;mcc_gener
      +                          ated_files/drivers/i2c_simple_master.c: 121:     I2C1_SetBuffer(p,2);
  5167  001E2E  C00C  F001         	movff	rd2RegCompleteHandler@p,I2C1_SetBuffer@buffer
  5168  001E32  C00D  F002         	movff	rd2RegCompleteHandler@p+1,I2C1_SetBuffer@buffer+1
  5169  001E36  0E00               	movlw	0
  5170  001E38  6E04               	movwf	(I2C1_SetBuffer@bufferSize+1)^0,c
  5171  001E3A  0E02               	movlw	2
  5172  001E3C  6E03               	movwf	I2C1_SetBuffer@bufferSize^0,c
  5173  001E3E  ECA0  F00F         	call	_I2C1_SetBuffer	;wreg free
  5174  001E42                     
  5175                           ;mcc_generated_files/drivers/i2c_simple_master.c: 122:     I2C1_SetDataCompleteCallback(
      +                          ((void*)0),((void*)0));
  5176  001E42  0E00               	movlw	0
  5177  001E44  6E07               	movwf	I2C1_SetDataCompleteCallback@cb^0,c
  5178  001E46  0E00               	movlw	0
  5179  001E48  6E08               	movwf	(I2C1_SetDataCompleteCallback@cb+1)^0,c
  5180  001E4A  0E00               	movlw	0
  5181  001E4C  6E09               	movwf	(I2C1_SetDataCompleteCallback@cb+2)^0,c
  5182  001E4E  0E00               	movlw	0
  5183  001E50  6E0A               	movwf	I2C1_SetDataCompleteCallback@ptr^0,c
  5184  001E52  0E00               	movlw	0
  5185  001E54  6E0B               	movwf	(I2C1_SetDataCompleteCallback@ptr+1)^0,c
  5186  001E56  ECE0  F00F         	call	_I2C1_SetDataCompleteCallback	;wreg free
  5187  001E5A                     
  5188                           ;mcc_generated_files/drivers/i2c_simple_master.c: 123:     return I2C1_RESTART_READ;
  5189  001E5A  0E02               	movlw	2
  5190  001E5C  0012               	return		;funcret
  5191  001E5E                     __end_of_rd2RegCompleteHandler:
  5192                           	callstack 0
  5193                           
  5194 ;; *************** function _rd1RegCompleteHandler *****************
  5195 ;; Defined at:
  5196 ;;		line 81 in file "mcc_generated_files/drivers/i2c_simple_master.c"
  5197 ;; Parameters:    Size  Location     Type
  5198 ;;  p               2   11[COMRAM] PTR void 
  5199 ;;		 -> I2C1_ReadDataBlock@bufferBlock(4), I2C1_Write2ByteRegister@data(2), I2C1_Write1ByteRegister@data(1), I2C1_Read2B
      +yteRegister@returnValue(2), 
  5200 ;;		 -> I2C1_Read1ByteRegister@returnValue(1), i2c_readDataBlock@d(4), i2c_write2ByteRegister@data(2), i2c_read2ByteRegi
      +ster@result(2), 
  5201 ;;		 -> i2c_read1ByteRegister@d2(1), i2c_write1ByteRegister@data(1), NULL(0), 
  5202 ;; Auto vars:     Size  Location     Type
  5203 ;;		None
  5204 ;; Return value:  Size  Location     Type
  5205 ;;                  1    wreg      enum E360
  5206 ;; Registers used:
  5207 ;;		wreg, fsr2l, fsr2h, status,2, status,0, prodl, prodh, cstack
  5208 ;; Tracked objects:
  5209 ;;		On entry : 0/0
  5210 ;;		On exit  : 0/0
  5211 ;;		Unchanged: 0/0
  5212 ;; Data sizes:     COMRAM   BANK0   BANK1   BANK2   BANK3   BANK4   BANK5   BANK6   BANK7   BANK8   BANK9  BANK10  BANK1
      +1  BANK12  BANK14
  5213 ;;      Params:         2       0       0       0       0       0       0       0       0       0       0       0       
      +0       0       0
  5214 ;;      Locals:         0       0       0       0       0       0       0       0       0       0       0       0       
      +0       0       0
  5215 ;;      Temps:          0       0       0       0       0       0       0       0       0       0       0       0       
      +0       0       0
  5216 ;;      Totals:         2       0       0       0       0       0       0       0       0       0       0       0       
      +0       0       0
  5217 ;;Total ram usage:        2 bytes
  5218 ;; Hardware stack levels used: 1
  5219 ;; Hardware stack levels required when called: 2
  5220 ;; This function calls:
  5221 ;;		_I2C1_SetBuffer
  5222 ;;		_I2C1_SetDataCompleteCallback
  5223 ;; This function is called by:
  5224 ;;		_i2c_read1ByteRegister
  5225 ;;		_I2C1_DO_TX
  5226 ;;		_I2C1_DO_RX
  5227 ;;		_I2C1_DO_TX_EMPTY
  5228 ;;		_I2C1_DO_ADDRESS_NACK
  5229 ;;		_I2C1_DO_RX_EMPTY
  5230 ;; This function uses a non-reentrant model
  5231 ;;
  5232                           
  5233                           	psect	text54
  5234  001E5E                     __ptext54:
  5235                           	callstack 0
  5236  001E5E                     _rd1RegCompleteHandler:
  5237                           	callstack 22
  5238  001E5E                     
  5239                           ;mcc_generated_files/drivers/i2c_simple_master.c: 81: static i2c1_operations_t rd1RegCom
      +                          pleteHandler(void *p);mcc_generated_files/drivers/i2c_simple_master.c: 82: {;mcc_generat
      +                          ed_files/drivers/i2c_simple_master.c: 83:     I2C1_SetBuffer(p,1);
  5240  001E5E  C00C  F001         	movff	rd1RegCompleteHandler@p,I2C1_SetBuffer@buffer
  5241  001E62  C00D  F002         	movff	rd1RegCompleteHandler@p+1,I2C1_SetBuffer@buffer+1
  5242  001E66  0E00               	movlw	0
  5243  001E68  6E04               	movwf	(I2C1_SetBuffer@bufferSize+1)^0,c
  5244  001E6A  0E01               	movlw	1
  5245  001E6C  6E03               	movwf	I2C1_SetBuffer@bufferSize^0,c
  5246  001E6E  ECA0  F00F         	call	_I2C1_SetBuffer	;wreg free
  5247  001E72                     
  5248                           ;mcc_generated_files/drivers/i2c_simple_master.c: 84:     I2C1_SetDataCompleteCallback((
      +                          (void*)0),((void*)0));
  5249  001E72  0E00               	movlw	0
  5250  001E74  6E07               	movwf	I2C1_SetDataCompleteCallback@cb^0,c
  5251  001E76  0E00               	movlw	0
  5252  001E78  6E08               	movwf	(I2C1_SetDataCompleteCallback@cb+1)^0,c
  5253  001E7A  0E00               	movlw	0
  5254  001E7C  6E09               	movwf	(I2C1_SetDataCompleteCallback@cb+2)^0,c
  5255  001E7E  0E00               	movlw	0
  5256  001E80  6E0A               	movwf	I2C1_SetDataCompleteCallback@ptr^0,c
  5257  001E82  0E00               	movlw	0
  5258  001E84  6E0B               	movwf	(I2C1_SetDataCompleteCallback@ptr+1)^0,c
  5259  001E86  ECE0  F00F         	call	_I2C1_SetDataCompleteCallback	;wreg free
  5260  001E8A                     
  5261                           ;mcc_generated_files/drivers/i2c_simple_master.c: 85:     return I2C1_RESTART_READ;
  5262  001E8A  0E02               	movlw	2
  5263  001E8C  0012               	return		;funcret
  5264  001E8E                     __end_of_rd1RegCompleteHandler:
  5265                           	callstack 0
  5266                           
  5267 ;; *************** function _wr1RegCompleteHandler *****************
  5268 ;; Defined at:
  5269 ;;		line 34 in file "mcc_generated_files/drivers/i2c_simple_master.c"
  5270 ;; Parameters:    Size  Location     Type
  5271 ;;  p               2   11[COMRAM] PTR void 
  5272 ;;		 -> I2C1_ReadDataBlock@bufferBlock(4), I2C1_Write2ByteRegister@data(2), I2C1_Write1ByteRegister@data(1), I2C1_Read2B
      +yteRegister@returnValue(2), 
  5273 ;;		 -> I2C1_Read1ByteRegister@returnValue(1), i2c_readDataBlock@d(4), i2c_write2ByteRegister@data(2), i2c_read2ByteRegi
      +ster@result(2), 
  5274 ;;		 -> i2c_read1ByteRegister@d2(1), i2c_write1ByteRegister@data(1), NULL(0), 
  5275 ;; Auto vars:     Size  Location     Type
  5276 ;;		None
  5277 ;; Return value:  Size  Location     Type
  5278 ;;                  1    wreg      enum E360
  5279 ;; Registers used:
  5280 ;;		wreg, fsr2l, fsr2h, status,2, status,0, prodl, prodh, cstack
  5281 ;; Tracked objects:
  5282 ;;		On entry : 0/0
  5283 ;;		On exit  : 0/0
  5284 ;;		Unchanged: 0/0
  5285 ;; Data sizes:     COMRAM   BANK0   BANK1   BANK2   BANK3   BANK4   BANK5   BANK6   BANK7   BANK8   BANK9  BANK10  BANK1
      +1  BANK12  BANK14
  5286 ;;      Params:         2       0       0       0       0       0       0       0       0       0       0       0       
      +0       0       0
  5287 ;;      Locals:         0       0       0       0       0       0       0       0       0       0       0       0       
      +0       0       0
  5288 ;;      Temps:          0       0       0       0       0       0       0       0       0       0       0       0       
      +0       0       0
  5289 ;;      Totals:         2       0       0       0       0       0       0       0       0       0       0       0       
      +0       0       0
  5290 ;;Total ram usage:        2 bytes
  5291 ;; Hardware stack levels used: 1
  5292 ;; Hardware stack levels required when called: 2
  5293 ;; This function calls:
  5294 ;;		_I2C1_SetBuffer
  5295 ;;		_I2C1_SetDataCompleteCallback
  5296 ;; This function is called by:
  5297 ;;		_i2c_write1ByteRegister
  5298 ;;		_I2C1_DO_TX
  5299 ;;		_I2C1_DO_RX
  5300 ;;		_I2C1_DO_TX_EMPTY
  5301 ;;		_I2C1_DO_ADDRESS_NACK
  5302 ;;		_I2C1_DO_RX_EMPTY
  5303 ;; This function uses a non-reentrant model
  5304 ;;
  5305                           
  5306                           	psect	text55
  5307  001E8E                     __ptext55:
  5308                           	callstack 0
  5309  001E8E                     _wr1RegCompleteHandler:
  5310                           	callstack 22
  5311  001E8E                     
  5312                           ;mcc_generated_files/drivers/i2c_simple_master.c: 34: static i2c1_operations_t wr1RegCom
      +                          pleteHandler(void *p);mcc_generated_files/drivers/i2c_simple_master.c: 35: {;mcc_generat
      +                          ed_files/drivers/i2c_simple_master.c: 36:     I2C1_SetBuffer(p,1);
  5313  001E8E  C00C  F001         	movff	wr1RegCompleteHandler@p,I2C1_SetBuffer@buffer
  5314  001E92  C00D  F002         	movff	wr1RegCompleteHandler@p+1,I2C1_SetBuffer@buffer+1
  5315  001E96  0E00               	movlw	0
  5316  001E98  6E04               	movwf	(I2C1_SetBuffer@bufferSize+1)^0,c
  5317  001E9A  0E01               	movlw	1
  5318  001E9C  6E03               	movwf	I2C1_SetBuffer@bufferSize^0,c
  5319  001E9E  ECA0  F00F         	call	_I2C1_SetBuffer	;wreg free
  5320  001EA2                     
  5321                           ;mcc_generated_files/drivers/i2c_simple_master.c: 37:     I2C1_SetDataCompleteCallback((
      +                          (void*)0),((void*)0));
  5322  001EA2  0E00               	movlw	0
  5323  001EA4  6E07               	movwf	I2C1_SetDataCompleteCallback@cb^0,c
  5324  001EA6  0E00               	movlw	0
  5325  001EA8  6E08               	movwf	(I2C1_SetDataCompleteCallback@cb+1)^0,c
  5326  001EAA  0E00               	movlw	0
  5327  001EAC  6E09               	movwf	(I2C1_SetDataCompleteCallback@cb+2)^0,c
  5328  001EAE  0E00               	movlw	0
  5329  001EB0  6E0A               	movwf	I2C1_SetDataCompleteCallback@ptr^0,c
  5330  001EB2  0E00               	movlw	0
  5331  001EB4  6E0B               	movwf	(I2C1_SetDataCompleteCallback@ptr+1)^0,c
  5332  001EB6  ECE0  F00F         	call	_I2C1_SetDataCompleteCallback	;wreg free
  5333  001EBA                     
  5334                           ;mcc_generated_files/drivers/i2c_simple_master.c: 38:     return I2C1_CONTINUE;
  5335  001EBA  0E04               	movlw	4
  5336  001EBC  0012               	return		;funcret
  5337  001EBE                     __end_of_wr1RegCompleteHandler:
  5338                           	callstack 0
  5339                           
  5340 ;; *************** function _wr2RegCompleteHandler@i2c1_master_example$F168 *****************
  5341 ;; Defined at:
  5342 ;;		line 163 in file "mcc_generated_files/examples/i2c1_master_example.c"
  5343 ;; Parameters:    Size  Location     Type
  5344 ;;  ptr             2   11[COMRAM] PTR void 
  5345 ;;		 -> I2C1_ReadDataBlock@bufferBlock(4), I2C1_Write2ByteRegister@data(2), I2C1_Write1ByteRegister@data(1), I2C1_Read2B
      +yteRegister@returnValue(2), 
  5346 ;;		 -> I2C1_Read1ByteRegister@returnValue(1), i2c_readDataBlock@d(4), i2c_write2ByteRegister@data(2), i2c_read2ByteRegi
      +ster@result(2), 
  5347 ;;		 -> i2c_read1ByteRegister@d2(1), i2c_write1ByteRegister@data(1), NULL(0), 
  5348 ;; Auto vars:     Size  Location     Type
  5349 ;;		None
  5350 ;; Return value:  Size  Location     Type
  5351 ;;                  1    wreg      enum E360
  5352 ;; Registers used:
  5353 ;;		wreg, fsr2l, fsr2h, status,2, status,0, prodl, prodh, cstack
  5354 ;; Tracked objects:
  5355 ;;		On entry : 0/0
  5356 ;;		On exit  : 0/0
  5357 ;;		Unchanged: 0/0
  5358 ;; Data sizes:     COMRAM   BANK0   BANK1   BANK2   BANK3   BANK4   BANK5   BANK6   BANK7   BANK8   BANK9  BANK10  BANK1
      +1  BANK12  BANK14
  5359 ;;      Params:         2       0       0       0       0       0       0       0       0       0       0       0       
      +0       0       0
  5360 ;;      Locals:         0       0       0       0       0       0       0       0       0       0       0       0       
      +0       0       0
  5361 ;;      Temps:          0       0       0       0       0       0       0       0       0       0       0       0       
      +0       0       0
  5362 ;;      Totals:         2       0       0       0       0       0       0       0       0       0       0       0       
      +0       0       0
  5363 ;;Total ram usage:        2 bytes
  5364 ;; Hardware stack levels used: 1
  5365 ;; Hardware stack levels required when called: 2
  5366 ;; This function calls:
  5367 ;;		_I2C1_SetBuffer
  5368 ;;		_I2C1_SetDataCompleteCallback
  5369 ;; This function is called by:
  5370 ;;		_I2C1_Write2ByteRegister
  5371 ;;		_I2C1_DO_TX
  5372 ;;		_I2C1_DO_RX
  5373 ;;		_I2C1_DO_TX_EMPTY
  5374 ;;		_I2C1_DO_ADDRESS_NACK
  5375 ;;		_I2C1_DO_RX_EMPTY
  5376 ;; This function uses a non-reentrant model
  5377 ;;
  5378                           
  5379                           	psect	text56
  5380  001EBE                     __ptext56:
  5381                           	callstack 0
  5382  001EBE                     _wr2RegCompleteHandler@i2c1_master_example$F168:
  5383                           	callstack 22
  5384  001EBE                     
  5385                           ;mcc_generated_files/examples/i2c1_master_example.c: 163: static i2c1_operations_t wr2Re
      +                          gCompleteHandler(void *ptr);mcc_generated_files/examples/i2c1_master_example.c: 164: {;m
      +                          cc_generated_files/examples/i2c1_master_example.c: 165:     I2C1_SetBuffer(ptr,2);
  5386  001EBE  C00C  F001         	movff	wr2RegCompleteHandler@i2c1_master_example$F168@ptr,I2C1_SetBuffer@buffer
  5387  001EC2  C00D  F002         	movff	wr2RegCompleteHandler@i2c1_master_example$F168@ptr+1,I2C1_SetBuffer@buffer+1
  5388  001EC6  0E00               	movlw	0
  5389  001EC8  6E04               	movwf	(I2C1_SetBuffer@bufferSize+1)^0,c
  5390  001ECA  0E02               	movlw	2
  5391  001ECC  6E03               	movwf	I2C1_SetBuffer@bufferSize^0,c
  5392  001ECE  ECA0  F00F         	call	_I2C1_SetBuffer	;wreg free
  5393  001ED2                     
  5394                           ;mcc_generated_files/examples/i2c1_master_example.c: 166:     I2C1_SetDataCompleteCallba
      +                          ck(((void*)0),((void*)0));
  5395  001ED2  0E00               	movlw	0
  5396  001ED4  6E07               	movwf	I2C1_SetDataCompleteCallback@cb^0,c
  5397  001ED6  0E00               	movlw	0
  5398  001ED8  6E08               	movwf	(I2C1_SetDataCompleteCallback@cb+1)^0,c
  5399  001EDA  0E00               	movlw	0
  5400  001EDC  6E09               	movwf	(I2C1_SetDataCompleteCallback@cb+2)^0,c
  5401  001EDE  0E00               	movlw	0
  5402  001EE0  6E0A               	movwf	I2C1_SetDataCompleteCallback@ptr^0,c
  5403  001EE2  0E00               	movlw	0
  5404  001EE4  6E0B               	movwf	(I2C1_SetDataCompleteCallback@ptr+1)^0,c
  5405  001EE6  ECE0  F00F         	call	_I2C1_SetDataCompleteCallback	;wreg free
  5406  001EEA                     
  5407                           ;mcc_generated_files/examples/i2c1_master_example.c: 167:     return I2C1_CONTINUE;
  5408  001EEA  0E04               	movlw	4
  5409  001EEC  0012               	return		;funcret
  5410  001EEE                     __end_of_wr2RegCompleteHandler@i2c1_master_example$F168:
  5411                           	callstack 0
  5412                           
  5413 ;; *************** function _I2C1_SetDataCompleteCallback *****************
  5414 ;; Defined at:
  5415 ;;		line 273 in file "mcc_generated_files/i2c1_master.c"
  5416 ;; Parameters:    Size  Location     Type
  5417 ;;  cb              3    6[COMRAM] PTR FTN(PTR void ,)enum 
  5418 ;;		 -> Absolute function(1), rdBlkRegCompleteHandler@i2c1_master_example$F179(1), wr2RegCompleteHandler@i2c1_master_exa
      +mple$F168(1), wr1RegCompleteHandler@i2c1_master_example$F162(1), 
  5419 ;;		 -> rd2RegCompleteHandler@i2c1_master_example$F156(1), rd1RegCompleteHandler@i2c1_master_example$F145(1), rdBlkRegCo
      +mpleteHandler(1), wr2RegCompleteHandler(1), 
  5420 ;;		 -> rd2RegCompleteHandler(1), rd1RegCompleteHandler(1), wr1RegCompleteHandler(1), 
  5421 ;;  ptr             2    9[COMRAM] PTR void 
  5422 ;;		 -> I2C1_ReadDataBlock@bufferBlock(4), I2C1_Write2ByteRegister@data(2), I2C1_Write1ByteRegister@data(1), I2C1_Read2B
      +yteRegister@returnValue(2), 
  5423 ;;		 -> I2C1_Read1ByteRegister@returnValue(1), i2c_readDataBlock@d(4), i2c_write2ByteRegister@data(2), i2c_read2ByteRegi
      +ster@result(2), 
  5424 ;;		 -> i2c_read1ByteRegister@d2(1), i2c_write1ByteRegister@data(1), NULL(0), 
  5425 ;; Auto vars:     Size  Location     Type
  5426 ;;		None
  5427 ;; Return value:  Size  Location     Type
  5428 ;;                  1    wreg      void 
  5429 ;; Registers used:
  5430 ;;		wreg, fsr2l, fsr2h, status,2, status,0, prodl, prodh, cstack
  5431 ;; Tracked objects:
  5432 ;;		On entry : 0/0
  5433 ;;		On exit  : 0/0
  5434 ;;		Unchanged: 0/0
  5435 ;; Data sizes:     COMRAM   BANK0   BANK1   BANK2   BANK3   BANK4   BANK5   BANK6   BANK7   BANK8   BANK9  BANK10  BANK1
      +1  BANK12  BANK14
  5436 ;;      Params:         5       0       0       0       0       0       0       0       0       0       0       0       
      +0       0       0
  5437 ;;      Locals:         0       0       0       0       0       0       0       0       0       0       0       0       
      +0       0       0
  5438 ;;      Temps:          0       0       0       0       0       0       0       0       0       0       0       0       
      +0       0       0
  5439 ;;      Totals:         5       0       0       0       0       0       0       0       0       0       0       0       
      +0       0       0
  5440 ;;Total ram usage:        5 bytes
  5441 ;; Hardware stack levels used: 1
  5442 ;; Hardware stack levels required when called: 1
  5443 ;; This function calls:
  5444 ;;		_I2C1_SetCallback
  5445 ;; This function is called by:
  5446 ;;		_wr1RegCompleteHandler
  5447 ;;		_rd1RegCompleteHandler
  5448 ;;		_rd2RegCompleteHandler
  5449 ;;		_i2c_read2ByteRegister
  5450 ;;		_wr2RegCompleteHandler
  5451 ;;		_rdBlkRegCompleteHandler
  5452 ;;		_rd1RegCompleteHandler@i2c1_master_example$F145
  5453 ;;		_rd2RegCompleteHandler@i2c1_master_example$F156
  5454 ;;		_wr1RegCompleteHandler@i2c1_master_example$F162
  5455 ;;		_wr2RegCompleteHandler@i2c1_master_example$F168
  5456 ;;		_rdBlkRegCompleteHandler@i2c1_master_example$F179
  5457 ;;		_i2c_write1ByteRegister
  5458 ;;		_i2c_read1ByteRegister
  5459 ;;		_i2c_write2ByteRegister
  5460 ;;		_i2c_readDataBlock
  5461 ;;		_I2C1_Read1ByteRegister
  5462 ;;		_I2C1_Read2ByteRegister
  5463 ;;		_I2C1_Write1ByteRegister
  5464 ;;		_I2C1_Write2ByteRegister
  5465 ;;		_I2C1_ReadDataBlock
  5466 ;; This function uses a non-reentrant model
  5467 ;;
  5468                           
  5469                           	psect	text57
  5470  001FC0                     __ptext57:
  5471                           	callstack 0
  5472  001FC0                     _I2C1_SetDataCompleteCallback:
  5473                           	callstack 28
  5474  001FC0                     
  5475                           ;mcc_generated_files/i2c1_master.c: 273: void I2C1_SetDataCompleteCallback(i2c1_callback
      +                          _t cb, void *ptr);mcc_generated_files/i2c1_master.c: 274: {;mcc_generated_files/i2c1_mas
      +                          ter.c: 275:     I2C1_SetCallback(I2C1_DATA_COMPLETE, cb, ptr);
  5476  001FC0  C007  F001         	movff	I2C1_SetDataCompleteCallback@cb,I2C1_SetCallback@cb
  5477  001FC4  C008  F002         	movff	I2C1_SetDataCompleteCallback@cb+1,I2C1_SetCallback@cb+1
  5478  001FC8  C009  F003         	movff	I2C1_SetDataCompleteCallback@cb+2,I2C1_SetCallback@cb+2
  5479  001FCC  C00A  F004         	movff	I2C1_SetDataCompleteCallback@ptr,I2C1_SetCallback@ptr
  5480  001FD0  C00B  F005         	movff	I2C1_SetDataCompleteCallback@ptr+1,I2C1_SetCallback@ptr+1
  5481  001FD4  0E00               	movlw	0
  5482  001FD6  ECA4  F00C         	call	_I2C1_SetCallback
  5483  001FDA  0012               	return		;funcret
  5484  001FDC                     __end_of_I2C1_SetDataCompleteCallback:
  5485                           	callstack 0
  5486                           
  5487 ;; *************** function _I2C1_SetCallback *****************
  5488 ;; Defined at:
  5489 ;;		line 298 in file "mcc_generated_files/i2c1_master.c"
  5490 ;; Parameters:    Size  Location     Type
  5491 ;;  idx             1    wreg     enum E13094
  5492 ;;  cb              3    0[COMRAM] PTR FTN(PTR void ,)enum 
  5493 ;;		 -> Absolute function(1), rdBlkRegCompleteHandler@i2c1_master_example$F179(1), wr2RegCompleteHandler@i2c1_master_exa
      +mple$F168(1), wr1RegCompleteHandler@i2c1_master_example$F162(1), 
  5494 ;;		 -> rd2RegCompleteHandler@i2c1_master_example$F156(1), rd1RegCompleteHandler@i2c1_master_example$F145(1), rdBlkRegCo
      +mpleteHandler(1), wr2RegCompleteHandler(1), 
  5495 ;;		 -> rd2RegCompleteHandler(1), rd1RegCompleteHandler(1), wr1RegCompleteHandler(1), 
  5496 ;;  ptr             2    3[COMRAM] PTR void 
  5497 ;;		 -> I2C1_ReadDataBlock@bufferBlock(4), I2C1_Write2ByteRegister@data(2), I2C1_Write1ByteRegister@data(1), I2C1_Read2B
      +yteRegister@returnValue(2), 
  5498 ;;		 -> I2C1_Read1ByteRegister@returnValue(1), i2c_readDataBlock@d(4), i2c_write2ByteRegister@data(2), i2c_read2ByteRegi
      +ster@result(2), 
  5499 ;;		 -> i2c_read1ByteRegister@d2(1), i2c_write1ByteRegister@data(1), NULL(0), 
  5500 ;; Auto vars:     Size  Location     Type
  5501 ;;  idx             1    5[COMRAM] enum E13094
  5502 ;; Return value:  Size  Location     Type
  5503 ;;                  1    wreg      void 
  5504 ;; Registers used:
  5505 ;;		wreg, fsr2l, fsr2h, status,2, status,0, prodl, prodh
  5506 ;; Tracked objects:
  5507 ;;		On entry : 0/0
  5508 ;;		On exit  : 0/0
  5509 ;;		Unchanged: 0/0
  5510 ;; Data sizes:     COMRAM   BANK0   BANK1   BANK2   BANK3   BANK4   BANK5   BANK6   BANK7   BANK8   BANK9  BANK10  BANK1
      +1  BANK12  BANK14
  5511 ;;      Params:         5       0       0       0       0       0       0       0       0       0       0       0       
      +0       0       0
  5512 ;;      Locals:         1       0       0       0       0       0       0       0       0       0       0       0       
      +0       0       0
  5513 ;;      Temps:          0       0       0       0       0       0       0       0       0       0       0       0       
      +0       0       0
  5514 ;;      Totals:         6       0       0       0       0       0       0       0       0       0       0       0       
      +0       0       0
  5515 ;;Total ram usage:        6 bytes
  5516 ;; Hardware stack levels used: 1
  5517 ;; This function calls:
  5518 ;;		Nothing
  5519 ;; This function is called by:
  5520 ;;		_I2C1_SetDataCompleteCallback
  5521 ;;		_I2C1_SetAddressNackCallback
  5522 ;;		_I2C1_SetWriteCollisionCallback
  5523 ;;		_I2C1_SetDataNackCallback
  5524 ;;		_I2C1_SetTimeoutCallback
  5525 ;; This function uses a non-reentrant model
  5526 ;;
  5527                           
  5528                           	psect	text58
  5529  001948                     __ptext58:
  5530                           	callstack 0
  5531  001948                     _I2C1_SetCallback:
  5532                           	callstack 28
  5533                           
  5534                           ;incstack = 0
  5535                           ;I2C1_SetCallback@idx stored from wreg
  5536  001948  6E06               	movwf	I2C1_SetCallback@idx^0,c
  5537  00194A                     
  5538                           ;mcc_generated_files/i2c1_master.c: 298: static void I2C1_SetCallback(i2c1_callbackIndex
      +                          _t idx, i2c1_callback_t cb, void *ptr);mcc_generated_files/i2c1_master.c: 299: {;mcc_gen
      +                          erated_files/i2c1_master.c: 300:     if(cb)
  5539  00194A  5001               	movf	I2C1_SetCallback@cb^0,w,c
  5540  00194C  1002               	iorwf	(I2C1_SetCallback@cb+1)^0,w,c
  5541  00194E  1003               	iorwf	(I2C1_SetCallback@cb+2)^0,w,c
  5542  001950  B4D8               	btfsc	status,2,c
  5543  001952  EFAD  F00C         	goto	u871
  5544  001956  EFAF  F00C         	goto	u870
  5545  00195A                     u871:
  5546  00195A  EFCB  F00C         	goto	l2617
  5547  00195E                     u870:
  5548  00195E                     
  5549                           ;mcc_generated_files/i2c1_master.c: 301:     {;mcc_generated_files/i2c1_master.c: 302:  
      +                                 I2C1_Status.callbackTable[idx] = cb;
  5550  00195E  5006               	movf	I2C1_SetCallback@idx^0,w,c
  5551  001960  0D03               	mullw	3
  5552  001962  0E60               	movlw	low _I2C1_Status
  5553  001964  24F3               	addwf	243,w,c
  5554  001966  6ED9               	movwf	fsr2l,c
  5555  001968  0E00               	movlw	high _I2C1_Status
  5556  00196A  20F4               	addwfc	prodh,w,c
  5557  00196C  6EDA               	movwf	fsr2h,c
  5558  00196E  C001  FFDE         	movff	I2C1_SetCallback@cb,postinc2
  5559  001972  C002  FFDE         	movff	I2C1_SetCallback@cb+1,postinc2
  5560  001976  C003  FFDE         	movff	I2C1_SetCallback@cb+2,postinc2
  5561                           
  5562                           ;mcc_generated_files/i2c1_master.c: 303:         I2C1_Status.callbackPayload[idx] = ptr;
  5563  00197A  5006               	movf	I2C1_SetCallback@idx^0,w,c
  5564  00197C  0D02               	mullw	2
  5565  00197E  0E72               	movlw	low (_I2C1_Status+18)
  5566  001980  24F3               	addwf	243,w,c
  5567  001982  6ED9               	movwf	fsr2l,c
  5568  001984  0E00               	movlw	high (_I2C1_Status+18)
  5569  001986  20F4               	addwfc	prodh,w,c
  5570  001988  6EDA               	movwf	fsr2h,c
  5571  00198A  C004  FFDE         	movff	I2C1_SetCallback@ptr,postinc2
  5572  00198E  C005  FFDD         	movff	I2C1_SetCallback@ptr+1,postdec2
  5573                           
  5574                           ;mcc_generated_files/i2c1_master.c: 304:     }
  5575  001992  EFE5  F00C         	goto	l439
  5576  001996                     l2617:
  5577                           
  5578                           ;mcc_generated_files/i2c1_master.c: 306:     {;mcc_generated_files/i2c1_master.c: 307:  
      +                                 I2C1_Status.callbackTable[idx] = I2C1_CallbackReturnStop;
  5579  001996  5006               	movf	I2C1_SetCallback@idx^0,w,c
  5580  001998  0D03               	mullw	3
  5581  00199A  0E60               	movlw	low _I2C1_Status
  5582  00199C  24F3               	addwf	243,w,c
  5583  00199E  6ED9               	movwf	fsr2l,c
  5584  0019A0  0E00               	movlw	high _I2C1_Status
  5585  0019A2  20F4               	addwfc	prodh,w,c
  5586  0019A4  6EDA               	movwf	fsr2h,c
  5587  0019A6  0E74               	movlw	low _I2C1_CallbackReturnStop
  5588  0019A8  6EDE               	movwf	postinc2,c
  5589  0019AA  0E21               	movlw	high _I2C1_CallbackReturnStop
  5590  0019AC  6EDE               	movwf	postinc2,c
  5591  0019AE  0E00               	movlw	low (_I2C1_CallbackReturnStop shr (0+16))
  5592  0019B0  6EDE               	movwf	postinc2,c
  5593                           
  5594                           ;mcc_generated_files/i2c1_master.c: 308:         I2C1_Status.callbackPayload[idx] = ((vo
      +                          id*)0);
  5595  0019B2  5006               	movf	I2C1_SetCallback@idx^0,w,c
  5596  0019B4  0D02               	mullw	2
  5597  0019B6  0E72               	movlw	low (_I2C1_Status+18)
  5598  0019B8  24F3               	addwf	243,w,c
  5599  0019BA  6ED9               	movwf	fsr2l,c
  5600  0019BC  0E00               	movlw	high (_I2C1_Status+18)
  5601  0019BE  20F4               	addwfc	prodh,w,c
  5602  0019C0  6EDA               	movwf	fsr2h,c
  5603  0019C2  0E00               	movlw	0
  5604  0019C4  6EDE               	movwf	postinc2,c
  5605  0019C6  0E00               	movlw	0
  5606  0019C8  6EDD               	movwf	postdec2,c
  5607  0019CA                     l439:
  5608  0019CA  0012               	return		;funcret
  5609  0019CC                     __end_of_I2C1_SetCallback:
  5610                           	callstack 0
  5611                           
  5612 ;; *************** function _I2C1_SetBuffer *****************
  5613 ;; Defined at:
  5614 ;;		line 263 in file "mcc_generated_files/i2c1_master.c"
  5615 ;; Parameters:    Size  Location     Type
  5616 ;;  buffer          2    0[COMRAM] PTR void 
  5617 ;;		 -> i2c_write1ByteRegister@data.data(3), i2c_read1ByteRegister@d2.data(3), i2c_read2ByteRegister@result.data(3), i2c
      +_write2ByteRegister@data.data(3), 
  5618 ;;		 -> I2C1_Read1ByteRegister@returnValue.data(3), I2C1_Read2ByteRegister@returnValue.data(3), I2C1_Write1ByteRegister@
      +data.data(3), I2C1_Write2ByteRegister@data.data(3), 
  5619 ;;		 -> I2C1_ReadDataBlock@reg(1), I2C1_ReadDataBlock@bufferBlock(4), bufferBlock.data(3), I2C1_Write2ByteRegister@reg(1
      +), 
  5620 ;;		 -> I2C1_Write2ByteRegister@data(2), I2C1_Write1ByteRegister@reg(1), I2C1_Write1ByteRegister@data(1), I2C1_Read2Byte
      +Register@reg(1), 
  5621 ;;		 -> I2C1_Read2ByteRegister@returnValue(2), I2C1_Read1ByteRegister@reg(1), I2C1_Read1ByteRegister@returnValue(1), i2c
      +_readDataBlock@reg(1), 
  5622 ;;		 -> i2c_readDataBlock@d(4), d.data(3), i2c_write2ByteRegister@reg(1), i2c_write2ByteRegister@data(2), 
  5623 ;;		 -> i2c_read2ByteRegister@reg(1), i2c_read2ByteRegister@result(2), i2c_read1ByteRegister@reg(1), i2c_read1ByteRegist
      +er@d2(1), 
  5624 ;;		 -> i2c_write1ByteRegister@reg(1), i2c_write1ByteRegister@data(1), NULL(0), 
  5625 ;;  bufferSize      2    2[COMRAM] unsigned int 
  5626 ;; Auto vars:     Size  Location     Type
  5627 ;;		None
  5628 ;; Return value:  Size  Location     Type
  5629 ;;                  1    wreg      void 
  5630 ;; Registers used:
  5631 ;;		wreg, status,2, status,0
  5632 ;; Tracked objects:
  5633 ;;		On entry : 0/0
  5634 ;;		On exit  : 0/0
  5635 ;;		Unchanged: 0/0
  5636 ;; Data sizes:     COMRAM   BANK0   BANK1   BANK2   BANK3   BANK4   BANK5   BANK6   BANK7   BANK8   BANK9  BANK10  BANK1
      +1  BANK12  BANK14
  5637 ;;      Params:         4       0       0       0       0       0       0       0       0       0       0       0       
      +0       0       0
  5638 ;;      Locals:         0       0       0       0       0       0       0       0       0       0       0       0       
      +0       0       0
  5639 ;;      Temps:          0       0       0       0       0       0       0       0       0       0       0       0       
      +0       0       0
  5640 ;;      Totals:         4       0       0       0       0       0       0       0       0       0       0       0       
      +0       0       0
  5641 ;;Total ram usage:        4 bytes
  5642 ;; Hardware stack levels used: 1
  5643 ;; This function calls:
  5644 ;;		Nothing
  5645 ;; This function is called by:
  5646 ;;		_wr1RegCompleteHandler
  5647 ;;		_rd1RegCompleteHandler
  5648 ;;		_rd2RegCompleteHandler
  5649 ;;		_i2c_read2ByteRegister
  5650 ;;		_wr2RegCompleteHandler
  5651 ;;		_rdBlkRegCompleteHandler
  5652 ;;		_rd1RegCompleteHandler@i2c1_master_example$F145
  5653 ;;		_rd2RegCompleteHandler@i2c1_master_example$F156
  5654 ;;		_wr1RegCompleteHandler@i2c1_master_example$F162
  5655 ;;		_wr2RegCompleteHandler@i2c1_master_example$F168
  5656 ;;		_rdBlkRegCompleteHandler@i2c1_master_example$F179
  5657 ;;		_i2c_write1ByteRegister
  5658 ;;		_i2c_writeNBytes
  5659 ;;		_i2c_read1ByteRegister
  5660 ;;		_i2c_write2ByteRegister
  5661 ;;		_i2c_readDataBlock
  5662 ;;		_i2c_readNBytes
  5663 ;;		_I2C1_Read1ByteRegister
  5664 ;;		_I2C1_Read2ByteRegister
  5665 ;;		_I2C1_Write1ByteRegister
  5666 ;;		_I2C1_Write2ByteRegister
  5667 ;;		_I2C1_WriteNBytes
  5668 ;;		_I2C1_ReadNBytes
  5669 ;;		_I2C1_ReadDataBlock
  5670 ;; This function uses a non-reentrant model
  5671 ;;
  5672                           
  5673                           	psect	text59
  5674  001F40                     __ptext59:
  5675                           	callstack 0
  5676  001F40                     _I2C1_SetBuffer:
  5677                           	callstack 29
  5678  001F40                     
  5679                           ;mcc_generated_files/i2c1_master.c: 263: void I2C1_SetBuffer(void *buffer, size_t buffer
      +                          Size);mcc_generated_files/i2c1_master.c: 264: {;mcc_generated_files/i2c1_master.c: 265: 
      +                              if(I2C1_Status.bufferFree)
  5680  001F40  0100               	movlb	0	; () banked
  5681  001F42  A789               	btfss	(_I2C1_Status+41)& (0+255),3,b
  5682  001F44  EFA6  F00F         	goto	u891
  5683  001F48  EFA8  F00F         	goto	u890
  5684  001F4C                     u891:
  5685  001F4C  EFB1  F00F         	goto	l419
  5686  001F50                     u890:
  5687  001F50                     
  5688                           ; BSR set to: 0
  5689                           ;mcc_generated_files/i2c1_master.c: 266:     {;mcc_generated_files/i2c1_master.c: 267:  
      +                                 I2C1_Status.data_ptr = buffer;
  5690  001F50  C001  F083         	movff	I2C1_SetBuffer@buffer,_I2C1_Status+35
  5691  001F54  C002  F084         	movff	I2C1_SetBuffer@buffer+1,_I2C1_Status+36
  5692  001F58                     
  5693                           ; BSR set to: 0
  5694                           ;mcc_generated_files/i2c1_master.c: 268:         I2C1_Status.data_length = bufferSize;
  5695  001F58  C003  F085         	movff	I2C1_SetBuffer@bufferSize,_I2C1_Status+37
  5696  001F5C  C004  F086         	movff	I2C1_SetBuffer@bufferSize+1,_I2C1_Status+38
  5697  001F60                     
  5698                           ; BSR set to: 0
  5699                           ;mcc_generated_files/i2c1_master.c: 269:         I2C1_Status.bufferFree = 0;
  5700  001F60  9789               	bcf	(_I2C1_Status+41)& (0+255),3,b
  5701  001F62                     l419:
  5702                           
  5703                           ; BSR set to: 0
  5704  001F62  0012               	return		;funcret
  5705  001F64                     __end_of_I2C1_SetBuffer:
  5706                           	callstack 0
  5707                           
  5708 ;; *************** function _I2C1_MasterStop *****************
  5709 ;; Defined at:
  5710 ;;		line 593 in file "mcc_generated_files/i2c1_master.c"
  5711 ;; Parameters:    Size  Location     Type
  5712 ;;		None
  5713 ;; Auto vars:     Size  Location     Type
  5714 ;;		None
  5715 ;; Return value:  Size  Location     Type
  5716 ;;                  1    wreg      void 
  5717 ;; Registers used:
  5718 ;;		None
  5719 ;; Tracked objects:
  5720 ;;		On entry : 0/0
  5721 ;;		On exit  : 0/0
  5722 ;;		Unchanged: 0/0
  5723 ;; Data sizes:     COMRAM   BANK0   BANK1   BANK2   BANK3   BANK4   BANK5   BANK6   BANK7   BANK8   BANK9  BANK10  BANK1
      +1  BANK12  BANK14
  5724 ;;      Params:         0       0       0       0       0       0       0       0       0       0       0       0       
      +0       0       0
  5725 ;;      Locals:         0       0       0       0       0       0       0       0       0       0       0       0       
      +0       0       0
  5726 ;;      Temps:          0       0       0       0       0       0       0       0       0       0       0       0       
      +0       0       0
  5727 ;;      Totals:         0       0       0       0       0       0       0       0       0       0       0       0       
      +0       0       0
  5728 ;;Total ram usage:        0 bytes
  5729 ;; Hardware stack levels used: 1
  5730 ;; This function calls:
  5731 ;;		Nothing
  5732 ;; This function is called by:
  5733 ;;		_I2C1_DO_SEND_STOP
  5734 ;; This function uses a non-reentrant model
  5735 ;;
  5736                           
  5737                           	psect	text60
  5738  002178                     __ptext60:
  5739                           	callstack 0
  5740  002178                     _I2C1_MasterStop:
  5741                           	callstack 23
  5742  002178                     
  5743                           ;mcc_generated_files/i2c1_master.c: 595:     SSP1CON2bits.PEN = 1;
  5744  002178  8496               	bsf	150,2,c	;volatile
  5745  00217A  0012               	return		;funcret
  5746  00217C                     __end_of_I2C1_MasterStop:
  5747                           	callstack 0
  5748                           
  5749 ;; *************** function _I2C1_MasterEnableRestart *****************
  5750 ;; Defined at:
  5751 ;;		line 573 in file "mcc_generated_files/i2c1_master.c"
  5752 ;; Parameters:    Size  Location     Type
  5753 ;;		None
  5754 ;; Auto vars:     Size  Location     Type
  5755 ;;		None
  5756 ;; Return value:  Size  Location     Type
  5757 ;;                  1    wreg      void 
  5758 ;; Registers used:
  5759 ;;		None
  5760 ;; Tracked objects:
  5761 ;;		On entry : 0/0
  5762 ;;		On exit  : 0/0
  5763 ;;		Unchanged: 0/0
  5764 ;; Data sizes:     COMRAM   BANK0   BANK1   BANK2   BANK3   BANK4   BANK5   BANK6   BANK7   BANK8   BANK9  BANK10  BANK1
      +1  BANK12  BANK14
  5765 ;;      Params:         0       0       0       0       0       0       0       0       0       0       0       0       
      +0       0       0
  5766 ;;      Locals:         0       0       0       0       0       0       0       0       0       0       0       0       
      +0       0       0
  5767 ;;      Temps:          0       0       0       0       0       0       0       0       0       0       0       0       
      +0       0       0
  5768 ;;      Totals:         0       0       0       0       0       0       0       0       0       0       0       0       
      +0       0       0
  5769 ;;Total ram usage:        0 bytes
  5770 ;; Hardware stack levels used: 1
  5771 ;; This function calls:
  5772 ;;		Nothing
  5773 ;; This function is called by:
  5774 ;;		_I2C1_DO_SEND_RESTART_READ
  5775 ;;		_I2C1_DO_SEND_RESTART_WRITE
  5776 ;;		_I2C1_DO_SEND_RESTART
  5777 ;;		_I2C1_DO_RX_EMPTY
  5778 ;; This function uses a non-reentrant model
  5779 ;;
  5780                           
  5781                           	psect	text61
  5782  00217C                     __ptext61:
  5783                           	callstack 0
  5784  00217C                     _I2C1_MasterEnableRestart:
  5785                           	callstack 23
  5786  00217C                     
  5787                           ;mcc_generated_files/i2c1_master.c: 575:     SSP1CON2bits.RSEN = 1;
  5788  00217C  8296               	bsf	150,1,c	;volatile
  5789  00217E  0012               	return		;funcret
  5790  002180                     __end_of_I2C1_MasterEnableRestart:
  5791                           	callstack 0
  5792                           
  5793 ;; *************** function _I2C1_MasterStart *****************
  5794 ;; Defined at:
  5795 ;;		line 588 in file "mcc_generated_files/i2c1_master.c"
  5796 ;; Parameters:    Size  Location     Type
  5797 ;;		None
  5798 ;; Auto vars:     Size  Location     Type
  5799 ;;		None
  5800 ;; Return value:  Size  Location     Type
  5801 ;;                  1    wreg      void 
  5802 ;; Registers used:
  5803 ;;		None
  5804 ;; Tracked objects:
  5805 ;;		On entry : 0/0
  5806 ;;		On exit  : 0/0
  5807 ;;		Unchanged: 0/0
  5808 ;; Data sizes:     COMRAM   BANK0   BANK1   BANK2   BANK3   BANK4   BANK5   BANK6   BANK7   BANK8   BANK9  BANK10  BANK1
      +1  BANK12  BANK14
  5809 ;;      Params:         0       0       0       0       0       0       0       0       0       0       0       0       
      +0       0       0
  5810 ;;      Locals:         0       0       0       0       0       0       0       0       0       0       0       0       
      +0       0       0
  5811 ;;      Temps:          0       0       0       0       0       0       0       0       0       0       0       0       
      +0       0       0
  5812 ;;      Totals:         0       0       0       0       0       0       0       0       0       0       0       0       
      +0       0       0
  5813 ;;Total ram usage:        0 bytes
  5814 ;; Hardware stack levels used: 1
  5815 ;; This function calls:
  5816 ;;		Nothing
  5817 ;; This function is called by:
  5818 ;;		_I2C1_MasterOperation
  5819 ;; This function uses a non-reentrant model
  5820 ;;
  5821                           
  5822                           	psect	text62
  5823  002180                     __ptext62:
  5824                           	callstack 0
  5825  002180                     _I2C1_MasterStart:
  5826                           	callstack 27
  5827  002180                     
  5828                           ;mcc_generated_files/i2c1_master.c: 590:     SSP1CON2bits.SEN = 1;
  5829  002180  8096               	bsf	150,0,c	;volatile
  5830  002182  0012               	return		;funcret
  5831  002184                     __end_of_I2C1_MasterStart:
  5832                           	callstack 0
  5833                           
  5834 ;; *************** function _I2C1_Close *****************
  5835 ;; Defined at:
  5836 ;;		line 209 in file "mcc_generated_files/i2c1_master.c"
  5837 ;; Parameters:    Size  Location     Type
  5838 ;;		None
  5839 ;; Auto vars:     Size  Location     Type
  5840 ;;  returnValue     1    0[COMRAM] enum E355
  5841 ;; Return value:  Size  Location     Type
  5842 ;;                  1    wreg      enum E355
  5843 ;; Registers used:
  5844 ;;		wreg, status,2, cstack
  5845 ;; Tracked objects:
  5846 ;;		On entry : 0/0
  5847 ;;		On exit  : 0/0
  5848 ;;		Unchanged: 0/0
  5849 ;; Data sizes:     COMRAM   BANK0   BANK1   BANK2   BANK3   BANK4   BANK5   BANK6   BANK7   BANK8   BANK9  BANK10  BANK1
      +1  BANK12  BANK14
  5850 ;;      Params:         0       0       0       0       0       0       0       0       0       0       0       0       
      +0       0       0
  5851 ;;      Locals:         1       0       0       0       0       0       0       0       0       0       0       0       
      +0       0       0
  5852 ;;      Temps:          0       0       0       0       0       0       0       0       0       0       0       0       
      +0       0       0
  5853 ;;      Totals:         1       0       0       0       0       0       0       0       0       0       0       0       
      +0       0       0
  5854 ;;Total ram usage:        1 bytes
  5855 ;; Hardware stack levels used: 1
  5856 ;; Hardware stack levels required when called: 1
  5857 ;; This function calls:
  5858 ;;		_I2C1_MasterClearIrq
  5859 ;;		_I2C1_MasterClose
  5860 ;;		_I2C1_MasterDisableIrq
  5861 ;; This function is called by:
  5862 ;;		_i2c_read2ByteRegister
  5863 ;;		_i2c_write1ByteRegister
  5864 ;;		_i2c_writeNBytes
  5865 ;;		_i2c_read1ByteRegister
  5866 ;;		_i2c_write2ByteRegister
  5867 ;;		_i2c_readDataBlock
  5868 ;;		_i2c_readNBytes
  5869 ;;		_I2C1_Read1ByteRegister
  5870 ;;		_I2C1_Read2ByteRegister
  5871 ;;		_I2C1_Write1ByteRegister
  5872 ;;		_I2C1_Write2ByteRegister
  5873 ;;		_I2C1_WriteNBytes
  5874 ;;		_I2C1_ReadNBytes
  5875 ;;		_I2C1_ReadDataBlock
  5876 ;; This function uses a non-reentrant model
  5877 ;;
  5878                           
  5879                           	psect	text63
  5880  001EEE                     __ptext63:
  5881                           	callstack 0
  5882  001EEE                     _I2C1_Close:
  5883                           	callstack 28
  5884  001EEE                     
  5885                           ;mcc_generated_files/i2c1_master.c: 211:     i2c1_error_t returnValue = I2C1_BUSY;
  5886  001EEE  0E01               	movlw	1
  5887  001EF0  6E01               	movwf	I2C1_Close@returnValue^0,c
  5888  001EF2                     
  5889                           ;mcc_generated_files/i2c1_master.c: 212:     if(!I2C1_Status.busy)
  5890  001EF2  0100               	movlb	0	; () banked
  5891  001EF4  B389               	btfsc	(_I2C1_Status+41)& (0+255),1,b
  5892  001EF6  EF7F  F00F         	goto	u1341
  5893  001EFA  EF81  F00F         	goto	u1340
  5894  001EFE                     u1341:
  5895  001EFE  EF8B  F00F         	goto	l3231
  5896  001F02                     u1340:
  5897  001F02                     
  5898                           ; BSR set to: 0
  5899                           ;mcc_generated_files/i2c1_master.c: 213:     {;mcc_generated_files/i2c1_master.c: 214:  
      +                                 I2C1_Status.inUse = 0;
  5900  001F02  9589               	bcf	(_I2C1_Status+41)& (0+255),2,b
  5901                           
  5902                           ;mcc_generated_files/i2c1_master.c: 215:         I2C1_Status.address = 0xff;
  5903  001F04  6982               	setf	(_I2C1_Status+34)& (0+255),b
  5904  001F06                     
  5905                           ; BSR set to: 0
  5906                           ;mcc_generated_files/i2c1_master.c: 216:         I2C1_MasterClearIrq();
  5907  001F06  ECB1  F010         	call	_I2C1_MasterClearIrq	;wreg free
  5908                           
  5909                           ;mcc_generated_files/i2c1_master.c: 217:         I2C1_MasterDisableIrq();
  5910  001F0A  ECAE  F010         	call	_I2C1_MasterDisableIrq	;wreg free
  5911                           
  5912                           ;mcc_generated_files/i2c1_master.c: 218:         I2C1_MasterClose();
  5913  001F0E  ECC2  F010         	call	_I2C1_MasterClose	;wreg free
  5914  001F12                     
  5915                           ;mcc_generated_files/i2c1_master.c: 219:         returnValue = I2C1_Status.error;
  5916  001F12  C088  F001         	movff	_I2C1_Status+40,I2C1_Close@returnValue
  5917  001F16                     l3231:
  5918                           
  5919                           ;mcc_generated_files/i2c1_master.c: 221:     return returnValue;
  5920  001F16  5001               	movf	I2C1_Close@returnValue^0,w,c
  5921  001F18  0012               	return		;funcret
  5922  001F1A                     __end_of_I2C1_Close:
  5923                           	callstack 0
  5924                           
  5925 ;; *************** function _I2C1_MasterDisableIrq *****************
  5926 ;; Defined at:
  5927 ;;		line 635 in file "mcc_generated_files/i2c1_master.c"
  5928 ;; Parameters:    Size  Location     Type
  5929 ;;		None
  5930 ;; Auto vars:     Size  Location     Type
  5931 ;;		None
  5932 ;; Return value:  Size  Location     Type
  5933 ;;                  1    wreg      void 
  5934 ;; Registers used:
  5935 ;;		None
  5936 ;; Tracked objects:
  5937 ;;		On entry : 0/0
  5938 ;;		On exit  : 0/0
  5939 ;;		Unchanged: 0/0
  5940 ;; Data sizes:     COMRAM   BANK0   BANK1   BANK2   BANK3   BANK4   BANK5   BANK6   BANK7   BANK8   BANK9  BANK10  BANK1
      +1  BANK12  BANK14
  5941 ;;      Params:         0       0       0       0       0       0       0       0       0       0       0       0       
      +0       0       0
  5942 ;;      Locals:         0       0       0       0       0       0       0       0       0       0       0       0       
      +0       0       0
  5943 ;;      Temps:          0       0       0       0       0       0       0       0       0       0       0       0       
      +0       0       0
  5944 ;;      Totals:         0       0       0       0       0       0       0       0       0       0       0       0       
      +0       0       0
  5945 ;;Total ram usage:        0 bytes
  5946 ;; Hardware stack levels used: 1
  5947 ;; This function calls:
  5948 ;;		Nothing
  5949 ;; This function is called by:
  5950 ;;		_I2C1_Close
  5951 ;;		_I2C1_SetTimeOut
  5952 ;; This function uses a non-reentrant model
  5953 ;;
  5954                           
  5955                           	psect	text64
  5956  00215C                     __ptext64:
  5957                           	callstack 0
  5958  00215C                     _I2C1_MasterDisableIrq:
  5959                           	callstack 28
  5960  00215C                     
  5961                           ;mcc_generated_files/i2c1_master.c: 637:     PIE3bits.SSP1IE = 0;
  5962  00215C  010E               	movlb	14	; () banked
  5963  00215E  91C0               	bcf	192,0,b	;volatile
  5964  002160                     
  5965                           ; BSR set to: 14
  5966  002160  0012               	return		;funcret
  5967  002162                     __end_of_I2C1_MasterDisableIrq:
  5968                           	callstack 0
  5969                           
  5970 ;; *************** function _I2C1_MasterClose *****************
  5971 ;; Defined at:
  5972 ;;		line 557 in file "mcc_generated_files/i2c1_master.c"
  5973 ;; Parameters:    Size  Location     Type
  5974 ;;		None
  5975 ;; Auto vars:     Size  Location     Type
  5976 ;;		None
  5977 ;; Return value:  Size  Location     Type
  5978 ;;                  1    wreg      void 
  5979 ;; Registers used:
  5980 ;;		None
  5981 ;; Tracked objects:
  5982 ;;		On entry : 0/0
  5983 ;;		On exit  : 0/0
  5984 ;;		Unchanged: 0/0
  5985 ;; Data sizes:     COMRAM   BANK0   BANK1   BANK2   BANK3   BANK4   BANK5   BANK6   BANK7   BANK8   BANK9  BANK10  BANK1
      +1  BANK12  BANK14
  5986 ;;      Params:         0       0       0       0       0       0       0       0       0       0       0       0       
      +0       0       0
  5987 ;;      Locals:         0       0       0       0       0       0       0       0       0       0       0       0       
      +0       0       0
  5988 ;;      Temps:          0       0       0       0       0       0       0       0       0       0       0       0       
      +0       0       0
  5989 ;;      Totals:         0       0       0       0       0       0       0       0       0       0       0       0       
      +0       0       0
  5990 ;;Total ram usage:        0 bytes
  5991 ;; Hardware stack levels used: 1
  5992 ;; This function calls:
  5993 ;;		Nothing
  5994 ;; This function is called by:
  5995 ;;		_I2C1_Close
  5996 ;; This function uses a non-reentrant model
  5997 ;;
  5998                           
  5999                           	psect	text65
  6000  002184                     __ptext65:
  6001                           	callstack 0
  6002  002184                     _I2C1_MasterClose:
  6003                           	callstack 28
  6004  002184                     
  6005                           ;mcc_generated_files/i2c1_master.c: 560:     SSP1CON1bits.SSPEN = 0;
  6006  002184  9A95               	bcf	149,5,c	;volatile
  6007  002186  0012               	return		;funcret
  6008  002188                     __end_of_I2C1_MasterClose:
  6009                           	callstack 0
  6010                           
  6011 ;; *************** function _I2C1_MasterClearIrq *****************
  6012 ;; Defined at:
  6013 ;;		line 640 in file "mcc_generated_files/i2c1_master.c"
  6014 ;; Parameters:    Size  Location     Type
  6015 ;;		None
  6016 ;; Auto vars:     Size  Location     Type
  6017 ;;		None
  6018 ;; Return value:  Size  Location     Type
  6019 ;;                  1    wreg      void 
  6020 ;; Registers used:
  6021 ;;		None
  6022 ;; Tracked objects:
  6023 ;;		On entry : 0/0
  6024 ;;		On exit  : 0/0
  6025 ;;		Unchanged: 0/0
  6026 ;; Data sizes:     COMRAM   BANK0   BANK1   BANK2   BANK3   BANK4   BANK5   BANK6   BANK7   BANK8   BANK9  BANK10  BANK1
      +1  BANK12  BANK14
  6027 ;;      Params:         0       0       0       0       0       0       0       0       0       0       0       0       
      +0       0       0
  6028 ;;      Locals:         0       0       0       0       0       0       0       0       0       0       0       0       
      +0       0       0
  6029 ;;      Temps:          0       0       0       0       0       0       0       0       0       0       0       0       
      +0       0       0
  6030 ;;      Totals:         0       0       0       0       0       0       0       0       0       0       0       0       
      +0       0       0
  6031 ;;Total ram usage:        0 bytes
  6032 ;; Hardware stack levels used: 1
  6033 ;; This function calls:
  6034 ;;		Nothing
  6035 ;; This function is called by:
  6036 ;;		_I2C1_Open
  6037 ;;		_I2C1_Close
  6038 ;;		_I2C1_MasterFsm
  6039 ;; This function uses a non-reentrant model
  6040 ;;
  6041                           
  6042                           	psect	text66
  6043  002162                     __ptext66:
  6044                           	callstack 0
  6045  002162                     _I2C1_MasterClearIrq:
  6046                           	callstack 28
  6047  002162                     
  6048                           ;mcc_generated_files/i2c1_master.c: 642:     PIR3bits.SSP1IF = 0;
  6049  002162  010E               	movlb	14	; () banked
  6050  002164  91C8               	bcf	200,0,b	;volatile
  6051  002166                     
  6052                           ; BSR set to: 14
  6053  002166  0012               	return		;funcret
  6054  002168                     __end_of_I2C1_MasterClearIrq:
  6055                           	callstack 0
  6056                           
  6057 ;; *************** function _SYSTEM_Initialize *****************
  6058 ;; Defined at:
  6059 ;;		line 50 in file "mcc_generated_files/mcc.c"
  6060 ;; Parameters:    Size  Location     Type
  6061 ;;		None
  6062 ;; Auto vars:     Size  Location     Type
  6063 ;;		None
  6064 ;; Return value:  Size  Location     Type
  6065 ;;                  1    wreg      void 
  6066 ;; Registers used:
  6067 ;;		wreg, status,2, status,0, cstack
  6068 ;; Tracked objects:
  6069 ;;		On entry : 0/0
  6070 ;;		On exit  : 0/0
  6071 ;;		Unchanged: 0/0
  6072 ;; Data sizes:     COMRAM   BANK0   BANK1   BANK2   BANK3   BANK4   BANK5   BANK6   BANK7   BANK8   BANK9  BANK10  BANK1
      +1  BANK12  BANK14
  6073 ;;      Params:         0       0       0       0       0       0       0       0       0       0       0       0       
      +0       0       0
  6074 ;;      Locals:         0       0       0       0       0       0       0       0       0       0       0       0       
      +0       0       0
  6075 ;;      Temps:          0       0       0       0       0       0       0       0       0       0       0       0       
      +0       0       0
  6076 ;;      Totals:         0       0       0       0       0       0       0       0       0       0       0       0       
      +0       0       0
  6077 ;;Total ram usage:        0 bytes
  6078 ;; Hardware stack levels used: 1
  6079 ;; Hardware stack levels required when called: 2
  6080 ;; This function calls:
  6081 ;;		_EUSART2_Initialize
  6082 ;;		_I2C1_Initialize
  6083 ;;		_OSCILLATOR_Initialize
  6084 ;;		_PIN_MANAGER_Initialize
  6085 ;;		_PMD_Initialize
  6086 ;; This function is called by:
  6087 ;;		_main
  6088 ;; This function uses a non-reentrant model
  6089 ;;
  6090                           
  6091                           	psect	text67
  6092  002028                     __ptext67:
  6093                           	callstack 0
  6094  002028                     _SYSTEM_Initialize:
  6095                           	callstack 28
  6096  002028                     
  6097                           ;mcc_generated_files/mcc.c: 52:     PMD_Initialize();
  6098  002028  ECEE  F00F         	call	_PMD_Initialize	;wreg free
  6099                           
  6100                           ;mcc_generated_files/mcc.c: 53:     I2C1_Initialize();
  6101  00202C  EC29  F010         	call	_I2C1_Initialize	;wreg free
  6102                           
  6103                           ;mcc_generated_files/mcc.c: 54:     PIN_MANAGER_Initialize();
  6104  002030  EC16  F00C         	call	_PIN_MANAGER_Initialize	;wreg free
  6105                           
  6106                           ;mcc_generated_files/mcc.c: 55:     OSCILLATOR_Initialize();
  6107  002034  EC08  F010         	call	_OSCILLATOR_Initialize	;wreg free
  6108  002038                     
  6109                           ;mcc_generated_files/mcc.c: 56:     EUSART2_Initialize();
  6110  002038  ECED  F00D         	call	_EUSART2_Initialize	;wreg free
  6111  00203C  0012               	return		;funcret
  6112  00203E                     __end_of_SYSTEM_Initialize:
  6113                           	callstack 0
  6114                           
  6115 ;; *************** function _PMD_Initialize *****************
  6116 ;; Defined at:
  6117 ;;		line 73 in file "mcc_generated_files/mcc.c"
  6118 ;; Parameters:    Size  Location     Type
  6119 ;;		None
  6120 ;; Auto vars:     Size  Location     Type
  6121 ;;		None
  6122 ;; Return value:  Size  Location     Type
  6123 ;;                  1    wreg      void 
  6124 ;; Registers used:
  6125 ;;		wreg, status,2
  6126 ;; Tracked objects:
  6127 ;;		On entry : 0/0
  6128 ;;		On exit  : 0/0
  6129 ;;		Unchanged: 0/0
  6130 ;; Data sizes:     COMRAM   BANK0   BANK1   BANK2   BANK3   BANK4   BANK5   BANK6   BANK7   BANK8   BANK9  BANK10  BANK1
      +1  BANK12  BANK14
  6131 ;;      Params:         0       0       0       0       0       0       0       0       0       0       0       0       
      +0       0       0
  6132 ;;      Locals:         0       0       0       0       0       0       0       0       0       0       0       0       
      +0       0       0
  6133 ;;      Temps:          0       0       0       0       0       0       0       0       0       0       0       0       
      +0       0       0
  6134 ;;      Totals:         0       0       0       0       0       0       0       0       0       0       0       0       
      +0       0       0
  6135 ;;Total ram usage:        0 bytes
  6136 ;; Hardware stack levels used: 1
  6137 ;; This function calls:
  6138 ;;		Nothing
  6139 ;; This function is called by:
  6140 ;;		_SYSTEM_Initialize
  6141 ;; This function uses a non-reentrant model
  6142 ;;
  6143                           
  6144                           	psect	text68
  6145  001FDC                     __ptext68:
  6146                           	callstack 0
  6147  001FDC                     _PMD_Initialize:
  6148                           	callstack 29
  6149  001FDC                     
  6150                           ;mcc_generated_files/mcc.c: 76:     PMD0 = 0x00;
  6151  001FDC  0E00               	movlw	0
  6152  001FDE  010E               	movlb	14	; () banked
  6153  001FE0  6FDC               	movwf	220,b	;volatile
  6154                           
  6155                           ;mcc_generated_files/mcc.c: 78:     PMD1 = 0x00;
  6156  001FE2  0E00               	movlw	0
  6157  001FE4  6FDD               	movwf	221,b	;volatile
  6158                           
  6159                           ;mcc_generated_files/mcc.c: 80:     PMD2 = 0x00;
  6160  001FE6  0E00               	movlw	0
  6161  001FE8  6FDE               	movwf	222,b	;volatile
  6162                           
  6163                           ;mcc_generated_files/mcc.c: 82:     PMD3 = 0x00;
  6164  001FEA  0E00               	movlw	0
  6165  001FEC  6FDF               	movwf	223,b	;volatile
  6166                           
  6167                           ;mcc_generated_files/mcc.c: 84:     PMD4 = 0x00;
  6168  001FEE  0E00               	movlw	0
  6169  001FF0  6FE0               	movwf	224,b	;volatile
  6170                           
  6171                           ;mcc_generated_files/mcc.c: 86:     PMD5 = 0x00;
  6172  001FF2  0E00               	movlw	0
  6173  001FF4  6FE1               	movwf	225,b	;volatile
  6174  001FF6                     
  6175                           ; BSR set to: 14
  6176  001FF6  0012               	return		;funcret
  6177  001FF8                     __end_of_PMD_Initialize:
  6178                           	callstack 0
  6179                           
  6180 ;; *************** function _PIN_MANAGER_Initialize *****************
  6181 ;; Defined at:
  6182 ;;		line 55 in file "mcc_generated_files/pin_manager.c"
  6183 ;; Parameters:    Size  Location     Type
  6184 ;;		None
  6185 ;; Auto vars:     Size  Location     Type
  6186 ;;		None
  6187 ;; Return value:  Size  Location     Type
  6188 ;;                  1    wreg      void 
  6189 ;; Registers used:
  6190 ;;		wreg, status,2
  6191 ;; Tracked objects:
  6192 ;;		On entry : 0/0
  6193 ;;		On exit  : 0/0
  6194 ;;		Unchanged: 0/0
  6195 ;; Data sizes:     COMRAM   BANK0   BANK1   BANK2   BANK3   BANK4   BANK5   BANK6   BANK7   BANK8   BANK9  BANK10  BANK1
      +1  BANK12  BANK14
  6196 ;;      Params:         0       0       0       0       0       0       0       0       0       0       0       0       
      +0       0       0
  6197 ;;      Locals:         0       0       0       0       0       0       0       0       0       0       0       0       
      +0       0       0
  6198 ;;      Temps:          0       0       0       0       0       0       0       0       0       0       0       0       
      +0       0       0
  6199 ;;      Totals:         0       0       0       0       0       0       0       0       0       0       0       0       
      +0       0       0
  6200 ;;Total ram usage:        0 bytes
  6201 ;; Hardware stack levels used: 1
  6202 ;; This function calls:
  6203 ;;		Nothing
  6204 ;; This function is called by:
  6205 ;;		_SYSTEM_Initialize
  6206 ;; This function uses a non-reentrant model
  6207 ;;
  6208                           
  6209                           	psect	text69
  6210  00182C                     __ptext69:
  6211                           	callstack 0
  6212  00182C                     _PIN_MANAGER_Initialize:
  6213                           	callstack 29
  6214  00182C                     
  6215                           ;mcc_generated_files/pin_manager.c: 60:     LATE = 0x00;
  6216  00182C  0E00               	movlw	0
  6217  00182E  6E86               	movwf	134,c	;volatile
  6218                           
  6219                           ;mcc_generated_files/pin_manager.c: 61:     LATD = 0x00;
  6220  001830  0E00               	movlw	0
  6221  001832  6E85               	movwf	133,c	;volatile
  6222                           
  6223                           ;mcc_generated_files/pin_manager.c: 62:     LATA = 0x00;
  6224  001834  0E00               	movlw	0
  6225  001836  6E82               	movwf	130,c	;volatile
  6226                           
  6227                           ;mcc_generated_files/pin_manager.c: 63:     LATB = 0x00;
  6228  001838  0E00               	movlw	0
  6229  00183A  6E83               	movwf	131,c	;volatile
  6230                           
  6231                           ;mcc_generated_files/pin_manager.c: 64:     LATC = 0x00;
  6232  00183C  0E00               	movlw	0
  6233  00183E  6E84               	movwf	132,c	;volatile
  6234                           
  6235                           ;mcc_generated_files/pin_manager.c: 69:     TRISE = 0x07;
  6236  001840  0E07               	movlw	7
  6237  001842  6E8B               	movwf	139,c	;volatile
  6238  001844                     
  6239                           ;mcc_generated_files/pin_manager.c: 70:     TRISA = 0xFF;
  6240  001844  6887               	setf	135,c	;volatile
  6241                           
  6242                           ;mcc_generated_files/pin_manager.c: 71:     TRISB = 0xBF;
  6243  001846  0EBF               	movlw	191
  6244  001848  6E88               	movwf	136,c	;volatile
  6245  00184A                     
  6246                           ;mcc_generated_files/pin_manager.c: 72:     TRISC = 0xFF;
  6247  00184A  6889               	setf	137,c	;volatile
  6248                           
  6249                           ;mcc_generated_files/pin_manager.c: 73:     TRISD = 0xFE;
  6250  00184C  0EFE               	movlw	254
  6251  00184E  6E8A               	movwf	138,c	;volatile
  6252                           
  6253                           ;mcc_generated_files/pin_manager.c: 78:     ANSELD = 0xFD;
  6254  001850  0EFD               	movlw	253
  6255  001852  010F               	movlb	15	; () banked
  6256  001854  6F21               	movwf	33,b	;volatile
  6257  001856                     
  6258                           ; BSR set to: 15
  6259                           ;mcc_generated_files/pin_manager.c: 79:     ANSELC = 0xFF;
  6260  001856  691C               	setf	28,b	;volatile
  6261                           
  6262                           ;mcc_generated_files/pin_manager.c: 80:     ANSELB = 0xF9;
  6263  001858  0EF9               	movlw	249
  6264  00185A  6F14               	movwf	20,b	;volatile
  6265                           
  6266                           ;mcc_generated_files/pin_manager.c: 81:     ANSELE = 0x07;
  6267  00185C  0E07               	movlw	7
  6268  00185E  6F29               	movwf	41,b	;volatile
  6269  001860                     
  6270                           ; BSR set to: 15
  6271                           ;mcc_generated_files/pin_manager.c: 82:     ANSELA = 0xFF;
  6272  001860  690C               	setf	12,b	;volatile
  6273                           
  6274                           ;mcc_generated_files/pin_manager.c: 87:     WPUD = 0x00;
  6275  001862  0E00               	movlw	0
  6276  001864  6F20               	movwf	32,b	;volatile
  6277                           
  6278                           ;mcc_generated_files/pin_manager.c: 88:     WPUE = 0x00;
  6279  001866  0E00               	movlw	0
  6280  001868  6F28               	movwf	40,b	;volatile
  6281                           
  6282                           ;mcc_generated_files/pin_manager.c: 89:     WPUB = 0x00;
  6283  00186A  0E00               	movlw	0
  6284  00186C  6F13               	movwf	19,b	;volatile
  6285                           
  6286                           ;mcc_generated_files/pin_manager.c: 90:     WPUA = 0x00;
  6287  00186E  0E00               	movlw	0
  6288  001870  6F0B               	movwf	11,b	;volatile
  6289                           
  6290                           ;mcc_generated_files/pin_manager.c: 91:     WPUC = 0x00;
  6291  001872  0E00               	movlw	0
  6292  001874  6F1B               	movwf	27,b	;volatile
  6293                           
  6294                           ;mcc_generated_files/pin_manager.c: 96:     ODCONE = 0x00;
  6295  001876  0E00               	movlw	0
  6296  001878  6F27               	movwf	39,b	;volatile
  6297                           
  6298                           ;mcc_generated_files/pin_manager.c: 97:     ODCONA = 0x00;
  6299  00187A  0E00               	movlw	0
  6300  00187C  6F0A               	movwf	10,b	;volatile
  6301                           
  6302                           ;mcc_generated_files/pin_manager.c: 98:     ODCONB = 0x00;
  6303  00187E  0E00               	movlw	0
  6304  001880  6F12               	movwf	18,b	;volatile
  6305                           
  6306                           ;mcc_generated_files/pin_manager.c: 99:     ODCONC = 0x00;
  6307  001882  0E00               	movlw	0
  6308  001884  6F1A               	movwf	26,b	;volatile
  6309                           
  6310                           ;mcc_generated_files/pin_manager.c: 100:     ODCOND = 0x00;
  6311  001886  0E00               	movlw	0
  6312  001888  6F1F               	movwf	31,b	;volatile
  6313  00188A                     
  6314                           ; BSR set to: 15
  6315                           ;mcc_generated_files/pin_manager.c: 105:     SLRCONA = 0xFF;
  6316  00188A  6909               	setf	9,b	;volatile
  6317  00188C                     
  6318                           ; BSR set to: 15
  6319                           ;mcc_generated_files/pin_manager.c: 106:     SLRCONB = 0xFF;
  6320  00188C  6911               	setf	17,b	;volatile
  6321  00188E                     
  6322                           ; BSR set to: 15
  6323                           ;mcc_generated_files/pin_manager.c: 107:     SLRCONC = 0xFF;
  6324  00188E  6919               	setf	25,b	;volatile
  6325  001890                     
  6326                           ; BSR set to: 15
  6327                           ;mcc_generated_files/pin_manager.c: 108:     SLRCOND = 0xFF;
  6328  001890  691E               	setf	30,b	;volatile
  6329                           
  6330                           ;mcc_generated_files/pin_manager.c: 109:     SLRCONE = 0x07;
  6331  001892  0E07               	movlw	7
  6332  001894  6F26               	movwf	38,b	;volatile
  6333  001896                     
  6334                           ; BSR set to: 15
  6335                           ;mcc_generated_files/pin_manager.c: 114:     INLVLA = 0xFF;
  6336  001896  6908               	setf	8,b	;volatile
  6337  001898                     
  6338                           ; BSR set to: 15
  6339                           ;mcc_generated_files/pin_manager.c: 115:     INLVLB = 0xFF;
  6340  001898  6910               	setf	16,b	;volatile
  6341  00189A                     
  6342                           ; BSR set to: 15
  6343                           ;mcc_generated_files/pin_manager.c: 116:     INLVLC = 0xFF;
  6344  00189A  6918               	setf	24,b	;volatile
  6345  00189C                     
  6346                           ; BSR set to: 15
  6347                           ;mcc_generated_files/pin_manager.c: 117:     INLVLD = 0xFF;
  6348  00189C  691D               	setf	29,b	;volatile
  6349                           
  6350                           ;mcc_generated_files/pin_manager.c: 118:     INLVLE = 0x0F;
  6351  00189E  0E0F               	movlw	15
  6352  0018A0  6F25               	movwf	37,b	;volatile
  6353                           
  6354                           ;mcc_generated_files/pin_manager.c: 127:     SSP1CLKPPS = 0x09;
  6355  0018A2  0E09               	movlw	9
  6356  0018A4  010E               	movlb	14	; () banked
  6357  0018A6  6FB2               	movwf	178,b	;volatile
  6358                           
  6359                           ;mcc_generated_files/pin_manager.c: 128:     RB1PPS = 0x0F;
  6360  0018A8  0E0F               	movlw	15
  6361  0018AA  6FEB               	movwf	235,b	;volatile
  6362                           
  6363                           ;mcc_generated_files/pin_manager.c: 129:     RB6PPS = 0x0B;
  6364  0018AC  0E0B               	movlw	11
  6365  0018AE  6FF0               	movwf	240,b	;volatile
  6366                           
  6367                           ;mcc_generated_files/pin_manager.c: 130:     RB2PPS = 0x10;
  6368  0018B0  0E10               	movlw	16
  6369  0018B2  6FEC               	movwf	236,b	;volatile
  6370                           
  6371                           ;mcc_generated_files/pin_manager.c: 131:     RD0PPS = 0x0B;
  6372  0018B4  0E0B               	movlw	11
  6373  0018B6  6FFA               	movwf	250,b	;volatile
  6374                           
  6375                           ;mcc_generated_files/pin_manager.c: 132:     RX2PPS = 0x19;
  6376  0018B8  0E19               	movlw	25
  6377  0018BA  6F88               	movwf	136,b	;volatile
  6378                           
  6379                           ;mcc_generated_files/pin_manager.c: 133:     SSP1DATPPS = 0x0A;
  6380  0018BC  0E0A               	movlw	10
  6381  0018BE  6FB3               	movwf	179,b	;volatile
  6382  0018C0                     
  6383                           ; BSR set to: 14
  6384  0018C0  0012               	return		;funcret
  6385  0018C2                     __end_of_PIN_MANAGER_Initialize:
  6386                           	callstack 0
  6387                           
  6388 ;; *************** function _OSCILLATOR_Initialize *****************
  6389 ;; Defined at:
  6390 ;;		line 59 in file "mcc_generated_files/mcc.c"
  6391 ;; Parameters:    Size  Location     Type
  6392 ;;		None
  6393 ;; Auto vars:     Size  Location     Type
  6394 ;;		None
  6395 ;; Return value:  Size  Location     Type
  6396 ;;                  1    wreg      void 
  6397 ;; Registers used:
  6398 ;;		wreg, status,2
  6399 ;; Tracked objects:
  6400 ;;		On entry : 0/0
  6401 ;;		On exit  : 0/0
  6402 ;;		Unchanged: 0/0
  6403 ;; Data sizes:     COMRAM   BANK0   BANK1   BANK2   BANK3   BANK4   BANK5   BANK6   BANK7   BANK8   BANK9  BANK10  BANK1
      +1  BANK12  BANK14
  6404 ;;      Params:         0       0       0       0       0       0       0       0       0       0       0       0       
      +0       0       0
  6405 ;;      Locals:         0       0       0       0       0       0       0       0       0       0       0       0       
      +0       0       0
  6406 ;;      Temps:          0       0       0       0       0       0       0       0       0       0       0       0       
      +0       0       0
  6407 ;;      Totals:         0       0       0       0       0       0       0       0       0       0       0       0       
      +0       0       0
  6408 ;;Total ram usage:        0 bytes
  6409 ;; Hardware stack levels used: 1
  6410 ;; This function calls:
  6411 ;;		Nothing
  6412 ;; This function is called by:
  6413 ;;		_SYSTEM_Initialize
  6414 ;; This function uses a non-reentrant model
  6415 ;;
  6416                           
  6417                           	psect	text70
  6418  002010                     __ptext70:
  6419                           	callstack 0
  6420  002010                     _OSCILLATOR_Initialize:
  6421                           	callstack 29
  6422  002010                     
  6423                           ;mcc_generated_files/mcc.c: 62:     OSCCON1 = 0x62;
  6424  002010  0E62               	movlw	98
  6425  002012  010E               	movlb	14	; () banked
  6426  002014  6FD3               	movwf	211,b	;volatile
  6427                           
  6428                           ;mcc_generated_files/mcc.c: 64:     OSCCON3 = 0x00;
  6429  002016  0E00               	movlw	0
  6430  002018  6FD5               	movwf	213,b	;volatile
  6431                           
  6432                           ;mcc_generated_files/mcc.c: 66:     OSCEN = 0x00;
  6433  00201A  0E00               	movlw	0
  6434  00201C  6FD7               	movwf	215,b	;volatile
  6435                           
  6436                           ;mcc_generated_files/mcc.c: 68:     OSCFRQ = 0x02;
  6437  00201E  0E02               	movlw	2
  6438  002020  6FD9               	movwf	217,b	;volatile
  6439                           
  6440                           ;mcc_generated_files/mcc.c: 70:     OSCTUNE = 0x00;
  6441  002022  0E00               	movlw	0
  6442  002024  6FD8               	movwf	216,b	;volatile
  6443  002026                     
  6444                           ; BSR set to: 14
  6445  002026  0012               	return		;funcret
  6446  002028                     __end_of_OSCILLATOR_Initialize:
  6447                           	callstack 0
  6448                           
  6449 ;; *************** function _I2C1_Initialize *****************
  6450 ;; Defined at:
  6451 ;;		line 167 in file "mcc_generated_files/i2c1_master.c"
  6452 ;; Parameters:    Size  Location     Type
  6453 ;;		None
  6454 ;; Auto vars:     Size  Location     Type
  6455 ;;		None
  6456 ;; Return value:  Size  Location     Type
  6457 ;;                  1    wreg      void 
  6458 ;; Registers used:
  6459 ;;		wreg, status,2
  6460 ;; Tracked objects:
  6461 ;;		On entry : 0/0
  6462 ;;		On exit  : 0/0
  6463 ;;		Unchanged: 0/0
  6464 ;; Data sizes:     COMRAM   BANK0   BANK1   BANK2   BANK3   BANK4   BANK5   BANK6   BANK7   BANK8   BANK9  BANK10  BANK1
      +1  BANK12  BANK14
  6465 ;;      Params:         0       0       0       0       0       0       0       0       0       0       0       0       
      +0       0       0
  6466 ;;      Locals:         0       0       0       0       0       0       0       0       0       0       0       0       
      +0       0       0
  6467 ;;      Temps:          0       0       0       0       0       0       0       0       0       0       0       0       
      +0       0       0
  6468 ;;      Totals:         0       0       0       0       0       0       0       0       0       0       0       0       
      +0       0       0
  6469 ;;Total ram usage:        0 bytes
  6470 ;; Hardware stack levels used: 1
  6471 ;; This function calls:
  6472 ;;		Nothing
  6473 ;; This function is called by:
  6474 ;;		_SYSTEM_Initialize
  6475 ;; This function uses a non-reentrant model
  6476 ;;
  6477                           
  6478                           	psect	text71
  6479  002052                     __ptext71:
  6480                           	callstack 0
  6481  002052                     _I2C1_Initialize:
  6482                           	callstack 29
  6483  002052                     
  6484                           ;mcc_generated_files/i2c1_master.c: 169:     SSP1STAT = 0x00;
  6485  002052  0E00               	movlw	0
  6486  002054  6E94               	movwf	148,c	;volatile
  6487                           
  6488                           ;mcc_generated_files/i2c1_master.c: 170:     SSP1CON1 = 0x08;
  6489  002056  0E08               	movlw	8
  6490  002058  6E95               	movwf	149,c	;volatile
  6491                           
  6492                           ;mcc_generated_files/i2c1_master.c: 171:     SSP1CON2 = 0x00;
  6493  00205A  0E00               	movlw	0
  6494  00205C  6E96               	movwf	150,c	;volatile
  6495                           
  6496                           ;mcc_generated_files/i2c1_master.c: 172:     SSP1ADD = 0x03;
  6497  00205E  0E03               	movlw	3
  6498  002060  6E92               	movwf	146,c	;volatile
  6499  002062                     
  6500                           ;mcc_generated_files/i2c1_master.c: 173:     SSP1CON1bits.SSPEN = 0;
  6501  002062  9A95               	bcf	149,5,c	;volatile
  6502  002064  0012               	return		;funcret
  6503  002066                     __end_of_I2C1_Initialize:
  6504                           	callstack 0
  6505                           
  6506 ;; *************** function _EUSART2_Initialize *****************
  6507 ;; Defined at:
  6508 ;;		line 66 in file "mcc_generated_files/eusart2.c"
  6509 ;; Parameters:    Size  Location     Type
  6510 ;;		None
  6511 ;; Auto vars:     Size  Location     Type
  6512 ;;		None
  6513 ;; Return value:  Size  Location     Type
  6514 ;;                  1    wreg      void 
  6515 ;; Registers used:
  6516 ;;		wreg, status,2, status,0, cstack
  6517 ;; Tracked objects:
  6518 ;;		On entry : 0/0
  6519 ;;		On exit  : 0/0
  6520 ;;		Unchanged: 0/0
  6521 ;; Data sizes:     COMRAM   BANK0   BANK1   BANK2   BANK3   BANK4   BANK5   BANK6   BANK7   BANK8   BANK9  BANK10  BANK1
      +1  BANK12  BANK14
  6522 ;;      Params:         0       0       0       0       0       0       0       0       0       0       0       0       
      +0       0       0
  6523 ;;      Locals:         0       0       0       0       0       0       0       0       0       0       0       0       
      +0       0       0
  6524 ;;      Temps:          0       0       0       0       0       0       0       0       0       0       0       0       
      +0       0       0
  6525 ;;      Totals:         0       0       0       0       0       0       0       0       0       0       0       0       
      +0       0       0
  6526 ;;Total ram usage:        0 bytes
  6527 ;; Hardware stack levels used: 1
  6528 ;; Hardware stack levels required when called: 1
  6529 ;; This function calls:
  6530 ;;		_EUSART2_SetErrorHandler
  6531 ;;		_EUSART2_SetFramingErrorHandler
  6532 ;;		_EUSART2_SetOverrunErrorHandler
  6533 ;; This function is called by:
  6534 ;;		_SYSTEM_Initialize
  6535 ;; This function uses a non-reentrant model
  6536 ;;
  6537                           
  6538                           	psect	text72
  6539  001BDA                     __ptext72:
  6540                           	callstack 0
  6541  001BDA                     _EUSART2_Initialize:
  6542                           	callstack 28
  6543  001BDA                     
  6544                           ;mcc_generated_files/eusart2.c: 71:     BAUD2CON = 0x08;
  6545  001BDA  0E08               	movlw	8
  6546  001BDC  010E               	movlb	14	; () banked
  6547  001BDE  6F9A               	movwf	154,b	;volatile
  6548                           
  6549                           ;mcc_generated_files/eusart2.c: 74:     RC2STA = 0x90;
  6550  001BE0  0E90               	movlw	144
  6551  001BE2  6F98               	movwf	152,b	;volatile
  6552                           
  6553                           ;mcc_generated_files/eusart2.c: 77:     TX2STA = 0x24;
  6554  001BE4  0E24               	movlw	36
  6555  001BE6  6F99               	movwf	153,b	;volatile
  6556                           
  6557                           ;mcc_generated_files/eusart2.c: 80:     SP2BRGL = 0x19;
  6558  001BE8  0E19               	movlw	25
  6559  001BEA  6F96               	movwf	150,b	;volatile
  6560                           
  6561                           ;mcc_generated_files/eusart2.c: 83:     SP2BRGH = 0x00;
  6562  001BEC  0E00               	movlw	0
  6563  001BEE  6F97               	movwf	151,b	;volatile
  6564  001BF0                     
  6565                           ; BSR set to: 14
  6566                           ;mcc_generated_files/eusart2.c: 86:     EUSART2_SetFramingErrorHandler(EUSART2_DefaultFr
      +                          amingErrorHandler);
  6567  001BF0  0E00               	movlw	0
  6568  001BF2  6E01               	movwf	EUSART2_SetFramingErrorHandler@interruptHandler^0,c
  6569  001BF4  0E00               	movlw	0
  6570  001BF6  6E02               	movwf	(EUSART2_SetFramingErrorHandler@interruptHandler+1)^0,c
  6571  001BF8  0E00               	movlw	0
  6572  001BFA  6E03               	movwf	(EUSART2_SetFramingErrorHandler@interruptHandler+2)^0,c
  6573  001BFC  EC5C  F010         	call	_EUSART2_SetFramingErrorHandler	;wreg free
  6574  001C00                     
  6575                           ;mcc_generated_files/eusart2.c: 87:     EUSART2_SetOverrunErrorHandler(EUSART2_DefaultOv
      +                          errunErrorHandler);
  6576  001C00  0E00               	movlw	0
  6577  001C02  6E01               	movwf	EUSART2_SetOverrunErrorHandler@interruptHandler^0,c
  6578  001C04  0E00               	movlw	0
  6579  001C06  6E02               	movwf	(EUSART2_SetOverrunErrorHandler@interruptHandler+1)^0,c
  6580  001C08  0E00               	movlw	0
  6581  001C0A  6E03               	movwf	(EUSART2_SetOverrunErrorHandler@interruptHandler+2)^0,c
  6582  001C0C  EC55  F010         	call	_EUSART2_SetOverrunErrorHandler	;wreg free
  6583  001C10                     
  6584                           ;mcc_generated_files/eusart2.c: 88:     EUSART2_SetErrorHandler(EUSART2_DefaultErrorHand
      +                          ler);
  6585  001C10  0E00               	movlw	0
  6586  001C12  6E01               	movwf	EUSART2_SetErrorHandler@interruptHandler^0,c
  6587  001C14  0E00               	movlw	0
  6588  001C16  6E02               	movwf	(EUSART2_SetErrorHandler@interruptHandler+1)^0,c
  6589  001C18  0E00               	movlw	0
  6590  001C1A  6E03               	movwf	(EUSART2_SetErrorHandler@interruptHandler+2)^0,c
  6591  001C1C  EC63  F010         	call	_EUSART2_SetErrorHandler	;wreg free
  6592  001C20                     
  6593                           ;mcc_generated_files/eusart2.c: 90:     eusart2RxLastError.status = 0;
  6594  001C20  0E00               	movlw	0
  6595  001C22  0100               	movlb	0	; () banked
  6596  001C24  6F92               	movwf	_eusart2RxLastError& (0+255),b	;volatile
  6597  001C26                     
  6598                           ; BSR set to: 0
  6599  001C26  0012               	return		;funcret
  6600  001C28                     __end_of_EUSART2_Initialize:
  6601                           	callstack 0
  6602                           
  6603 ;; *************** function _EUSART2_SetOverrunErrorHandler *****************
  6604 ;; Defined at:
  6605 ;;		line 170 in file "mcc_generated_files/eusart2.c"
  6606 ;; Parameters:    Size  Location     Type
  6607 ;;  interruptHan    3    0[COMRAM] PTR FTN()void 
  6608 ;;		 -> EUSART2_DefaultOverrunErrorHandler(1), 
  6609 ;; Auto vars:     Size  Location     Type
  6610 ;;		None
  6611 ;; Return value:  Size  Location     Type
  6612 ;;                  1    wreg      void 
  6613 ;; Registers used:
  6614 ;;		wreg, status,2, status,0
  6615 ;; Tracked objects:
  6616 ;;		On entry : 0/0
  6617 ;;		On exit  : 0/0
  6618 ;;		Unchanged: 0/0
  6619 ;; Data sizes:     COMRAM   BANK0   BANK1   BANK2   BANK3   BANK4   BANK5   BANK6   BANK7   BANK8   BANK9  BANK10  BANK1
      +1  BANK12  BANK14
  6620 ;;      Params:         3       0       0       0       0       0       0       0       0       0       0       0       
      +0       0       0
  6621 ;;      Locals:         0       0       0       0       0       0       0       0       0       0       0       0       
      +0       0       0
  6622 ;;      Temps:          0       0       0       0       0       0       0       0       0       0       0       0       
      +0       0       0
  6623 ;;      Totals:         3       0       0       0       0       0       0       0       0       0       0       0       
      +0       0       0
  6624 ;;Total ram usage:        3 bytes
  6625 ;; Hardware stack levels used: 1
  6626 ;; This function calls:
  6627 ;;		Nothing
  6628 ;; This function is called by:
  6629 ;;		_EUSART2_Initialize
  6630 ;; This function uses a non-reentrant model
  6631 ;;
  6632                           
  6633                           	psect	text73
  6634  0020AA                     __ptext73:
  6635                           	callstack 0
  6636  0020AA                     _EUSART2_SetOverrunErrorHandler:
  6637                           	callstack 28
  6638  0020AA                     
  6639                           ;mcc_generated_files/eusart2.c: 171:     EUSART2_OverrunErrorHandler = interruptHandler;
  6640  0020AA  C001  F0B6         	movff	EUSART2_SetOverrunErrorHandler@interruptHandler,_EUSART2_OverrunErrorHandler
  6641  0020AE  C002  F0B7         	movff	EUSART2_SetOverrunErrorHandler@interruptHandler+1,_EUSART2_OverrunErrorHandler+1
  6642  0020B2  C003  F0B8         	movff	EUSART2_SetOverrunErrorHandler@interruptHandler+2,_EUSART2_OverrunErrorHandler+2
  6643  0020B6  0012               	return		;funcret
  6644  0020B8                     __end_of_EUSART2_SetOverrunErrorHandler:
  6645                           	callstack 0
  6646                           
  6647 ;; *************** function _EUSART2_SetFramingErrorHandler *****************
  6648 ;; Defined at:
  6649 ;;		line 166 in file "mcc_generated_files/eusart2.c"
  6650 ;; Parameters:    Size  Location     Type
  6651 ;;  interruptHan    3    0[COMRAM] PTR FTN()void 
  6652 ;;		 -> EUSART2_DefaultFramingErrorHandler(1), 
  6653 ;; Auto vars:     Size  Location     Type
  6654 ;;		None
  6655 ;; Return value:  Size  Location     Type
  6656 ;;                  1    wreg      void 
  6657 ;; Registers used:
  6658 ;;		wreg, status,2, status,0
  6659 ;; Tracked objects:
  6660 ;;		On entry : 0/0
  6661 ;;		On exit  : 0/0
  6662 ;;		Unchanged: 0/0
  6663 ;; Data sizes:     COMRAM   BANK0   BANK1   BANK2   BANK3   BANK4   BANK5   BANK6   BANK7   BANK8   BANK9  BANK10  BANK1
      +1  BANK12  BANK14
  6664 ;;      Params:         3       0       0       0       0       0       0       0       0       0       0       0       
      +0       0       0
  6665 ;;      Locals:         0       0       0       0       0       0       0       0       0       0       0       0       
      +0       0       0
  6666 ;;      Temps:          0       0       0       0       0       0       0       0       0       0       0       0       
      +0       0       0
  6667 ;;      Totals:         3       0       0       0       0       0       0       0       0       0       0       0       
      +0       0       0
  6668 ;;Total ram usage:        3 bytes
  6669 ;; Hardware stack levels used: 1
  6670 ;; This function calls:
  6671 ;;		Nothing
  6672 ;; This function is called by:
  6673 ;;		_EUSART2_Initialize
  6674 ;; This function uses a non-reentrant model
  6675 ;;
  6676                           
  6677                           	psect	text74
  6678  0020B8                     __ptext74:
  6679                           	callstack 0
  6680  0020B8                     _EUSART2_SetFramingErrorHandler:
  6681                           	callstack 28
  6682  0020B8                     
  6683                           ;mcc_generated_files/eusart2.c: 167:     EUSART2_FramingErrorHandler = interruptHandler;
  6684  0020B8  C001  F0B9         	movff	EUSART2_SetFramingErrorHandler@interruptHandler,_EUSART2_FramingErrorHandler
  6685  0020BC  C002  F0BA         	movff	EUSART2_SetFramingErrorHandler@interruptHandler+1,_EUSART2_FramingErrorHandler+1
  6686  0020C0  C003  F0BB         	movff	EUSART2_SetFramingErrorHandler@interruptHandler+2,_EUSART2_FramingErrorHandler+2
  6687  0020C4  0012               	return		;funcret
  6688  0020C6                     __end_of_EUSART2_SetFramingErrorHandler:
  6689                           	callstack 0
  6690                           
  6691 ;; *************** function _EUSART2_SetErrorHandler *****************
  6692 ;; Defined at:
  6693 ;;		line 174 in file "mcc_generated_files/eusart2.c"
  6694 ;; Parameters:    Size  Location     Type
  6695 ;;  interruptHan    3    0[COMRAM] PTR FTN()void 
  6696 ;;		 -> EUSART2_DefaultErrorHandler(1), 
  6697 ;; Auto vars:     Size  Location     Type
  6698 ;;		None
  6699 ;; Return value:  Size  Location     Type
  6700 ;;                  1    wreg      void 
  6701 ;; Registers used:
  6702 ;;		wreg, status,2, status,0
  6703 ;; Tracked objects:
  6704 ;;		On entry : 0/0
  6705 ;;		On exit  : 0/0
  6706 ;;		Unchanged: 0/0
  6707 ;; Data sizes:     COMRAM   BANK0   BANK1   BANK2   BANK3   BANK4   BANK5   BANK6   BANK7   BANK8   BANK9  BANK10  BANK1
      +1  BANK12  BANK14
  6708 ;;      Params:         3       0       0       0       0       0       0       0       0       0       0       0       
      +0       0       0
  6709 ;;      Locals:         0       0       0       0       0       0       0       0       0       0       0       0       
      +0       0       0
  6710 ;;      Temps:          0       0       0       0       0       0       0       0       0       0       0       0       
      +0       0       0
  6711 ;;      Totals:         3       0       0       0       0       0       0       0       0       0       0       0       
      +0       0       0
  6712 ;;Total ram usage:        3 bytes
  6713 ;; Hardware stack levels used: 1
  6714 ;; This function calls:
  6715 ;;		Nothing
  6716 ;; This function is called by:
  6717 ;;		_EUSART2_Initialize
  6718 ;; This function uses a non-reentrant model
  6719 ;;
  6720                           
  6721                           	psect	text75
  6722  0020C6                     __ptext75:
  6723                           	callstack 0
  6724  0020C6                     _EUSART2_SetErrorHandler:
  6725                           	callstack 28
  6726  0020C6                     
  6727                           ;mcc_generated_files/eusart2.c: 175:     EUSART2_ErrorHandler = interruptHandler;
  6728  0020C6  C001  F0B3         	movff	EUSART2_SetErrorHandler@interruptHandler,_EUSART2_ErrorHandler
  6729  0020CA  C002  F0B4         	movff	EUSART2_SetErrorHandler@interruptHandler+1,_EUSART2_ErrorHandler+1
  6730  0020CE  C003  F0B5         	movff	EUSART2_SetErrorHandler@interruptHandler+2,_EUSART2_ErrorHandler+2
  6731  0020D2  0012               	return		;funcret
  6732  0020D4                     __end_of_EUSART2_SetErrorHandler:
  6733                           	callstack 0
  6734                           
  6735                           	psect	text76
  6736  000000                     __ptext76:
  6737                           	callstack 0
  6738  000000                     
  6739                           	psect	rparam
  6740  0000                     
  6741                           	psect	idloc
  6742                           
  6743                           ;Config register IDLOC0 @ 0x200000
  6744                           ;	unspecified, using default values
  6745  200000                     	org	2097152
  6746  200000  FFFF               	dw	65535
  6747                           
  6748                           ;Config register IDLOC1 @ 0x200002
  6749                           ;	unspecified, using default values
  6750  200002                     	org	2097154
  6751  200002  FFFF               	dw	65535
  6752                           
  6753                           ;Config register IDLOC2 @ 0x200004
  6754                           ;	unspecified, using default values
  6755  200004                     	org	2097156
  6756  200004  FFFF               	dw	65535
  6757                           
  6758                           ;Config register IDLOC3 @ 0x200006
  6759                           ;	unspecified, using default values
  6760  200006                     	org	2097158
  6761  200006  FFFF               	dw	65535
  6762                           
  6763                           ;Config register IDLOC4 @ 0x200008
  6764                           ;	unspecified, using default values
  6765  200008                     	org	2097160
  6766  200008  FFFF               	dw	65535
  6767                           
  6768                           ;Config register IDLOC5 @ 0x20000A
  6769                           ;	unspecified, using default values
  6770  20000A                     	org	2097162
  6771  20000A  FFFF               	dw	65535
  6772                           
  6773                           ;Config register IDLOC6 @ 0x20000C
  6774                           ;	unspecified, using default values
  6775  20000C                     	org	2097164
  6776  20000C  FFFF               	dw	65535
  6777                           
  6778                           ;Config register IDLOC7 @ 0x20000E
  6779                           ;	unspecified, using default values
  6780  20000E                     	org	2097166
  6781  20000E  FFFF               	dw	65535
  6782                           
  6783                           ;Config register IDLOC8 @ 0x200010
  6784                           ;	unspecified, using default values
  6785  200010                     	org	2097168
  6786  200010  FFFF               	dw	65535
  6787                           
  6788                           ;Config register IDLOC9 @ 0x200012
  6789                           ;	unspecified, using default values
  6790  200012                     	org	2097170
  6791  200012  FFFF               	dw	65535
  6792                           
  6793                           ;Config register IDLOC10 @ 0x200014
  6794                           ;	unspecified, using default values
  6795  200014                     	org	2097172
  6796  200014  FFFF               	dw	65535
  6797                           
  6798                           ;Config register IDLOC11 @ 0x200016
  6799                           ;	unspecified, using default values
  6800  200016                     	org	2097174
  6801  200016  FFFF               	dw	65535
  6802                           
  6803                           ;Config register IDLOC12 @ 0x200018
  6804                           ;	unspecified, using default values
  6805  200018                     	org	2097176
  6806  200018  FFFF               	dw	65535
  6807                           
  6808                           ;Config register IDLOC13 @ 0x20001A
  6809                           ;	unspecified, using default values
  6810  20001A                     	org	2097178
  6811  20001A  FFFF               	dw	65535
  6812                           
  6813                           ;Config register IDLOC14 @ 0x20001C
  6814                           ;	unspecified, using default values
  6815  20001C                     	org	2097180
  6816  20001C  FFFF               	dw	65535
  6817                           
  6818                           ;Config register IDLOC15 @ 0x20001E
  6819                           ;	unspecified, using default values
  6820  20001E                     	org	2097182
  6821  20001E  FFFF               	dw	65535
  6822                           
  6823                           ;Config register IDLOC16 @ 0x200020
  6824                           ;	unspecified, using default values
  6825  200020                     	org	2097184
  6826  200020  FFFF               	dw	65535
  6827                           
  6828                           ;Config register IDLOC17 @ 0x200022
  6829                           ;	unspecified, using default values
  6830  200022                     	org	2097186
  6831  200022  FFFF               	dw	65535
  6832                           
  6833                           ;Config register IDLOC18 @ 0x200024
  6834                           ;	unspecified, using default values
  6835  200024                     	org	2097188
  6836  200024  FFFF               	dw	65535
  6837                           
  6838                           ;Config register IDLOC19 @ 0x200026
  6839                           ;	unspecified, using default values
  6840  200026                     	org	2097190
  6841  200026  FFFF               	dw	65535
  6842                           
  6843                           ;Config register IDLOC20 @ 0x200028
  6844                           ;	unspecified, using default values
  6845  200028                     	org	2097192
  6846  200028  FFFF               	dw	65535
  6847                           
  6848                           ;Config register IDLOC21 @ 0x20002A
  6849                           ;	unspecified, using default values
  6850  20002A                     	org	2097194
  6851  20002A  FFFF               	dw	65535
  6852                           
  6853                           ;Config register IDLOC22 @ 0x20002C
  6854                           ;	unspecified, using default values
  6855  20002C                     	org	2097196
  6856  20002C  FFFF               	dw	65535
  6857                           
  6858                           ;Config register IDLOC23 @ 0x20002E
  6859                           ;	unspecified, using default values
  6860  20002E                     	org	2097198
  6861  20002E  FFFF               	dw	65535
  6862                           
  6863                           ;Config register IDLOC24 @ 0x200030
  6864                           ;	unspecified, using default values
  6865  200030                     	org	2097200
  6866  200030  FFFF               	dw	65535
  6867                           
  6868                           ;Config register IDLOC25 @ 0x200032
  6869                           ;	unspecified, using default values
  6870  200032                     	org	2097202
  6871  200032  FFFF               	dw	65535
  6872                           
  6873                           ;Config register IDLOC26 @ 0x200034
  6874                           ;	unspecified, using default values
  6875  200034                     	org	2097204
  6876  200034  FFFF               	dw	65535
  6877                           
  6878                           ;Config register IDLOC27 @ 0x200036
  6879                           ;	unspecified, using default values
  6880  200036                     	org	2097206
  6881  200036  FFFF               	dw	65535
  6882                           
  6883                           ;Config register IDLOC28 @ 0x200038
  6884                           ;	unspecified, using default values
  6885  200038                     	org	2097208
  6886  200038  FFFF               	dw	65535
  6887                           
  6888                           ;Config register IDLOC29 @ 0x20003A
  6889                           ;	unspecified, using default values
  6890  20003A                     	org	2097210
  6891  20003A  FFFF               	dw	65535
  6892                           
  6893                           ;Config register IDLOC30 @ 0x20003C
  6894                           ;	unspecified, using default values
  6895  20003C                     	org	2097212
  6896  20003C  FFFF               	dw	65535
  6897                           
  6898                           ;Config register IDLOC31 @ 0x20003E
  6899                           ;	unspecified, using default values
  6900  20003E                     	org	2097214
  6901  20003E  FFFF               	dw	65535
  6902                           
  6903                           ;Config register IDLOC32 @ 0x200040
  6904                           ;	unspecified, using default values
  6905  200040                     	org	2097216
  6906  200040  FFFF               	dw	65535
  6907                           
  6908                           ;Config register IDLOC33 @ 0x200042
  6909                           ;	unspecified, using default values
  6910  200042                     	org	2097218
  6911  200042  FFFF               	dw	65535
  6912                           
  6913                           ;Config register IDLOC34 @ 0x200044
  6914                           ;	unspecified, using default values
  6915  200044                     	org	2097220
  6916  200044  FFFF               	dw	65535
  6917                           
  6918                           ;Config register IDLOC35 @ 0x200046
  6919                           ;	unspecified, using default values
  6920  200046                     	org	2097222
  6921  200046  FFFF               	dw	65535
  6922                           
  6923                           ;Config register IDLOC36 @ 0x200048
  6924                           ;	unspecified, using default values
  6925  200048                     	org	2097224
  6926  200048  FFFF               	dw	65535
  6927                           
  6928                           ;Config register IDLOC37 @ 0x20004A
  6929                           ;	unspecified, using default values
  6930  20004A                     	org	2097226
  6931  20004A  FFFF               	dw	65535
  6932                           
  6933                           ;Config register IDLOC38 @ 0x20004C
  6934                           ;	unspecified, using default values
  6935  20004C                     	org	2097228
  6936  20004C  FFFF               	dw	65535
  6937                           
  6938                           ;Config register IDLOC39 @ 0x20004E
  6939                           ;	unspecified, using default values
  6940  20004E                     	org	2097230
  6941  20004E  FFFF               	dw	65535
  6942                           
  6943                           ;Config register IDLOC40 @ 0x200050
  6944                           ;	unspecified, using default values
  6945  200050                     	org	2097232
  6946  200050  FFFF               	dw	65535
  6947                           
  6948                           ;Config register IDLOC41 @ 0x200052
  6949                           ;	unspecified, using default values
  6950  200052                     	org	2097234
  6951  200052  FFFF               	dw	65535
  6952                           
  6953                           ;Config register IDLOC42 @ 0x200054
  6954                           ;	unspecified, using default values
  6955  200054                     	org	2097236
  6956  200054  FFFF               	dw	65535
  6957                           
  6958                           ;Config register IDLOC43 @ 0x200056
  6959                           ;	unspecified, using default values
  6960  200056                     	org	2097238
  6961  200056  FFFF               	dw	65535
  6962                           
  6963                           ;Config register IDLOC44 @ 0x200058
  6964                           ;	unspecified, using default values
  6965  200058                     	org	2097240
  6966  200058  FFFF               	dw	65535
  6967                           
  6968                           ;Config register IDLOC45 @ 0x20005A
  6969                           ;	unspecified, using default values
  6970  20005A                     	org	2097242
  6971  20005A  FFFF               	dw	65535
  6972                           
  6973                           ;Config register IDLOC46 @ 0x20005C
  6974                           ;	unspecified, using default values
  6975  20005C                     	org	2097244
  6976  20005C  FFFF               	dw	65535
  6977                           
  6978                           ;Config register IDLOC47 @ 0x20005E
  6979                           ;	unspecified, using default values
  6980  20005E                     	org	2097246
  6981  20005E  FFFF               	dw	65535
  6982                           
  6983                           ;Config register IDLOC48 @ 0x200060
  6984                           ;	unspecified, using default values
  6985  200060                     	org	2097248
  6986  200060  FFFF               	dw	65535
  6987                           
  6988                           ;Config register IDLOC49 @ 0x200062
  6989                           ;	unspecified, using default values
  6990  200062                     	org	2097250
  6991  200062  FFFF               	dw	65535
  6992                           
  6993                           ;Config register IDLOC50 @ 0x200064
  6994                           ;	unspecified, using default values
  6995  200064                     	org	2097252
  6996  200064  FFFF               	dw	65535
  6997                           
  6998                           ;Config register IDLOC51 @ 0x200066
  6999                           ;	unspecified, using default values
  7000  200066                     	org	2097254
  7001  200066  FFFF               	dw	65535
  7002                           
  7003                           ;Config register IDLOC52 @ 0x200068
  7004                           ;	unspecified, using default values
  7005  200068                     	org	2097256
  7006  200068  FFFF               	dw	65535
  7007                           
  7008                           ;Config register IDLOC53 @ 0x20006A
  7009                           ;	unspecified, using default values
  7010  20006A                     	org	2097258
  7011  20006A  FFFF               	dw	65535
  7012                           
  7013                           ;Config register IDLOC54 @ 0x20006C
  7014                           ;	unspecified, using default values
  7015  20006C                     	org	2097260
  7016  20006C  FFFF               	dw	65535
  7017                           
  7018                           ;Config register IDLOC55 @ 0x20006E
  7019                           ;	unspecified, using default values
  7020  20006E                     	org	2097262
  7021  20006E  FFFF               	dw	65535
  7022                           
  7023                           ;Config register IDLOC56 @ 0x200070
  7024                           ;	unspecified, using default values
  7025  200070                     	org	2097264
  7026  200070  FFFF               	dw	65535
  7027                           
  7028                           ;Config register IDLOC57 @ 0x200072
  7029                           ;	unspecified, using default values
  7030  200072                     	org	2097266
  7031  200072  FFFF               	dw	65535
  7032                           
  7033                           ;Config register IDLOC58 @ 0x200074
  7034                           ;	unspecified, using default values
  7035  200074                     	org	2097268
  7036  200074  FFFF               	dw	65535
  7037                           
  7038                           ;Config register IDLOC59 @ 0x200076
  7039                           ;	unspecified, using default values
  7040  200076                     	org	2097270
  7041  200076  FFFF               	dw	65535
  7042                           
  7043                           ;Config register IDLOC60 @ 0x200078
  7044                           ;	unspecified, using default values
  7045  200078                     	org	2097272
  7046  200078  FFFF               	dw	65535
  7047                           
  7048                           ;Config register IDLOC61 @ 0x20007A
  7049                           ;	unspecified, using default values
  7050  20007A                     	org	2097274
  7051  20007A  FFFF               	dw	65535
  7052                           
  7053                           ;Config register IDLOC62 @ 0x20007C
  7054                           ;	unspecified, using default values
  7055  20007C                     	org	2097276
  7056  20007C  FFFF               	dw	65535
  7057                           
  7058                           ;Config register IDLOC63 @ 0x20007E
  7059                           ;	unspecified, using default values
  7060  20007E                     	org	2097278
  7061  20007E  FFFF               	dw	65535
  7062                           
  7063                           ;Config register IDLOC64 @ 0x200080
  7064                           ;	unspecified, using default values
  7065  200080                     	org	2097280
  7066  200080  FFFF               	dw	65535
  7067                           
  7068                           ;Config register IDLOC65 @ 0x200082
  7069                           ;	unspecified, using default values
  7070  200082                     	org	2097282
  7071  200082  FFFF               	dw	65535
  7072                           
  7073                           ;Config register IDLOC66 @ 0x200084
  7074                           ;	unspecified, using default values
  7075  200084                     	org	2097284
  7076  200084  FFFF               	dw	65535
  7077                           
  7078                           ;Config register IDLOC67 @ 0x200086
  7079                           ;	unspecified, using default values
  7080  200086                     	org	2097286
  7081  200086  FFFF               	dw	65535
  7082                           
  7083                           ;Config register IDLOC68 @ 0x200088
  7084                           ;	unspecified, using default values
  7085  200088                     	org	2097288
  7086  200088  FFFF               	dw	65535
  7087                           
  7088                           ;Config register IDLOC69 @ 0x20008A
  7089                           ;	unspecified, using default values
  7090  20008A                     	org	2097290
  7091  20008A  FFFF               	dw	65535
  7092                           
  7093                           ;Config register IDLOC70 @ 0x20008C
  7094                           ;	unspecified, using default values
  7095  20008C                     	org	2097292
  7096  20008C  FFFF               	dw	65535
  7097                           
  7098                           ;Config register IDLOC71 @ 0x20008E
  7099                           ;	unspecified, using default values
  7100  20008E                     	org	2097294
  7101  20008E  FFFF               	dw	65535
  7102                           
  7103                           ;Config register IDLOC72 @ 0x200090
  7104                           ;	unspecified, using default values
  7105  200090                     	org	2097296
  7106  200090  FFFF               	dw	65535
  7107                           
  7108                           ;Config register IDLOC73 @ 0x200092
  7109                           ;	unspecified, using default values
  7110  200092                     	org	2097298
  7111  200092  FFFF               	dw	65535
  7112                           
  7113                           ;Config register IDLOC74 @ 0x200094
  7114                           ;	unspecified, using default values
  7115  200094                     	org	2097300
  7116  200094  FFFF               	dw	65535
  7117                           
  7118                           ;Config register IDLOC75 @ 0x200096
  7119                           ;	unspecified, using default values
  7120  200096                     	org	2097302
  7121  200096  FFFF               	dw	65535
  7122                           
  7123                           ;Config register IDLOC76 @ 0x200098
  7124                           ;	unspecified, using default values
  7125  200098                     	org	2097304
  7126  200098  FFFF               	dw	65535
  7127                           
  7128                           ;Config register IDLOC77 @ 0x20009A
  7129                           ;	unspecified, using default values
  7130  20009A                     	org	2097306
  7131  20009A  FFFF               	dw	65535
  7132                           
  7133                           ;Config register IDLOC78 @ 0x20009C
  7134                           ;	unspecified, using default values
  7135  20009C                     	org	2097308
  7136  20009C  FFFF               	dw	65535
  7137                           
  7138                           ;Config register IDLOC79 @ 0x20009E
  7139                           ;	unspecified, using default values
  7140  20009E                     	org	2097310
  7141  20009E  FFFF               	dw	65535
  7142                           
  7143                           ;Config register IDLOC80 @ 0x2000A0
  7144                           ;	unspecified, using default values
  7145  2000A0                     	org	2097312
  7146  2000A0  FFFF               	dw	65535
  7147                           
  7148                           ;Config register IDLOC81 @ 0x2000A2
  7149                           ;	unspecified, using default values
  7150  2000A2                     	org	2097314
  7151  2000A2  FFFF               	dw	65535
  7152                           
  7153                           ;Config register IDLOC82 @ 0x2000A4
  7154                           ;	unspecified, using default values
  7155  2000A4                     	org	2097316
  7156  2000A4  FFFF               	dw	65535
  7157                           
  7158                           ;Config register IDLOC83 @ 0x2000A6
  7159                           ;	unspecified, using default values
  7160  2000A6                     	org	2097318
  7161  2000A6  FFFF               	dw	65535
  7162                           
  7163                           ;Config register IDLOC84 @ 0x2000A8
  7164                           ;	unspecified, using default values
  7165  2000A8                     	org	2097320
  7166  2000A8  FFFF               	dw	65535
  7167                           
  7168                           ;Config register IDLOC85 @ 0x2000AA
  7169                           ;	unspecified, using default values
  7170  2000AA                     	org	2097322
  7171  2000AA  FFFF               	dw	65535
  7172                           
  7173                           ;Config register IDLOC86 @ 0x2000AC
  7174                           ;	unspecified, using default values
  7175  2000AC                     	org	2097324
  7176  2000AC  FFFF               	dw	65535
  7177                           
  7178                           ;Config register IDLOC87 @ 0x2000AE
  7179                           ;	unspecified, using default values
  7180  2000AE                     	org	2097326
  7181  2000AE  FFFF               	dw	65535
  7182                           
  7183                           ;Config register IDLOC88 @ 0x2000B0
  7184                           ;	unspecified, using default values
  7185  2000B0                     	org	2097328
  7186  2000B0  FFFF               	dw	65535
  7187                           
  7188                           ;Config register IDLOC89 @ 0x2000B2
  7189                           ;	unspecified, using default values
  7190  2000B2                     	org	2097330
  7191  2000B2  FFFF               	dw	65535
  7192                           
  7193                           ;Config register IDLOC90 @ 0x2000B4
  7194                           ;	unspecified, using default values
  7195  2000B4                     	org	2097332
  7196  2000B4  FFFF               	dw	65535
  7197                           
  7198                           ;Config register IDLOC91 @ 0x2000B6
  7199                           ;	unspecified, using default values
  7200  2000B6                     	org	2097334
  7201  2000B6  FFFF               	dw	65535
  7202                           
  7203                           ;Config register IDLOC92 @ 0x2000B8
  7204                           ;	unspecified, using default values
  7205  2000B8                     	org	2097336
  7206  2000B8  FFFF               	dw	65535
  7207                           
  7208                           ;Config register IDLOC93 @ 0x2000BA
  7209                           ;	unspecified, using default values
  7210  2000BA                     	org	2097338
  7211  2000BA  FFFF               	dw	65535
  7212                           
  7213                           ;Config register IDLOC94 @ 0x2000BC
  7214                           ;	unspecified, using default values
  7215  2000BC                     	org	2097340
  7216  2000BC  FFFF               	dw	65535
  7217                           
  7218                           ;Config register IDLOC95 @ 0x2000BE
  7219                           ;	unspecified, using default values
  7220  2000BE                     	org	2097342
  7221  2000BE  FFFF               	dw	65535
  7222                           
  7223                           ;Config register IDLOC96 @ 0x2000C0
  7224                           ;	unspecified, using default values
  7225  2000C0                     	org	2097344
  7226  2000C0  FFFF               	dw	65535
  7227                           
  7228                           ;Config register IDLOC97 @ 0x2000C2
  7229                           ;	unspecified, using default values
  7230  2000C2                     	org	2097346
  7231  2000C2  FFFF               	dw	65535
  7232                           
  7233                           ;Config register IDLOC98 @ 0x2000C4
  7234                           ;	unspecified, using default values
  7235  2000C4                     	org	2097348
  7236  2000C4  FFFF               	dw	65535
  7237                           
  7238                           ;Config register IDLOC99 @ 0x2000C6
  7239                           ;	unspecified, using default values
  7240  2000C6                     	org	2097350
  7241  2000C6  FFFF               	dw	65535
  7242                           
  7243                           ;Config register IDLOC100 @ 0x2000C8
  7244                           ;	unspecified, using default values
  7245  2000C8                     	org	2097352
  7246  2000C8  FFFF               	dw	65535
  7247                           
  7248                           ;Config register IDLOC101 @ 0x2000CA
  7249                           ;	unspecified, using default values
  7250  2000CA                     	org	2097354
  7251  2000CA  FFFF               	dw	65535
  7252                           
  7253                           ;Config register IDLOC102 @ 0x2000CC
  7254                           ;	unspecified, using default values
  7255  2000CC                     	org	2097356
  7256  2000CC  FFFF               	dw	65535
  7257                           
  7258                           ;Config register IDLOC103 @ 0x2000CE
  7259                           ;	unspecified, using default values
  7260  2000CE                     	org	2097358
  7261  2000CE  FFFF               	dw	65535
  7262                           
  7263                           ;Config register IDLOC104 @ 0x2000D0
  7264                           ;	unspecified, using default values
  7265  2000D0                     	org	2097360
  7266  2000D0  FFFF               	dw	65535
  7267                           
  7268                           ;Config register IDLOC105 @ 0x2000D2
  7269                           ;	unspecified, using default values
  7270  2000D2                     	org	2097362
  7271  2000D2  FFFF               	dw	65535
  7272                           
  7273                           ;Config register IDLOC106 @ 0x2000D4
  7274                           ;	unspecified, using default values
  7275  2000D4                     	org	2097364
  7276  2000D4  FFFF               	dw	65535
  7277                           
  7278                           ;Config register IDLOC107 @ 0x2000D6
  7279                           ;	unspecified, using default values
  7280  2000D6                     	org	2097366
  7281  2000D6  FFFF               	dw	65535
  7282                           
  7283                           ;Config register IDLOC108 @ 0x2000D8
  7284                           ;	unspecified, using default values
  7285  2000D8                     	org	2097368
  7286  2000D8  FFFF               	dw	65535
  7287                           
  7288                           ;Config register IDLOC109 @ 0x2000DA
  7289                           ;	unspecified, using default values
  7290  2000DA                     	org	2097370
  7291  2000DA  FFFF               	dw	65535
  7292                           
  7293                           ;Config register IDLOC110 @ 0x2000DC
  7294                           ;	unspecified, using default values
  7295  2000DC                     	org	2097372
  7296  2000DC  FFFF               	dw	65535
  7297                           
  7298                           ;Config register IDLOC111 @ 0x2000DE
  7299                           ;	unspecified, using default values
  7300  2000DE                     	org	2097374
  7301  2000DE  FFFF               	dw	65535
  7302                           
  7303                           ;Config register IDLOC112 @ 0x2000E0
  7304                           ;	unspecified, using default values
  7305  2000E0                     	org	2097376
  7306  2000E0  FFFF               	dw	65535
  7307                           
  7308                           ;Config register IDLOC113 @ 0x2000E2
  7309                           ;	unspecified, using default values
  7310  2000E2                     	org	2097378
  7311  2000E2  FFFF               	dw	65535
  7312                           
  7313                           ;Config register IDLOC114 @ 0x2000E4
  7314                           ;	unspecified, using default values
  7315  2000E4                     	org	2097380
  7316  2000E4  FFFF               	dw	65535
  7317                           
  7318                           ;Config register IDLOC115 @ 0x2000E6
  7319                           ;	unspecified, using default values
  7320  2000E6                     	org	2097382
  7321  2000E6  FFFF               	dw	65535
  7322                           
  7323                           ;Config register IDLOC116 @ 0x2000E8
  7324                           ;	unspecified, using default values
  7325  2000E8                     	org	2097384
  7326  2000E8  FFFF               	dw	65535
  7327                           
  7328                           ;Config register IDLOC117 @ 0x2000EA
  7329                           ;	unspecified, using default values
  7330  2000EA                     	org	2097386
  7331  2000EA  FFFF               	dw	65535
  7332                           
  7333                           ;Config register IDLOC118 @ 0x2000EC
  7334                           ;	unspecified, using default values
  7335  2000EC                     	org	2097388
  7336  2000EC  FFFF               	dw	65535
  7337                           
  7338                           ;Config register IDLOC119 @ 0x2000EE
  7339                           ;	unspecified, using default values
  7340  2000EE                     	org	2097390
  7341  2000EE  FFFF               	dw	65535
  7342                           
  7343                           ;Config register IDLOC120 @ 0x2000F0
  7344                           ;	unspecified, using default values
  7345  2000F0                     	org	2097392
  7346  2000F0  FFFF               	dw	65535
  7347                           
  7348                           ;Config register IDLOC121 @ 0x2000F2
  7349                           ;	unspecified, using default values
  7350  2000F2                     	org	2097394
  7351  2000F2  FFFF               	dw	65535
  7352                           
  7353                           ;Config register IDLOC122 @ 0x2000F4
  7354                           ;	unspecified, using default values
  7355  2000F4                     	org	2097396
  7356  2000F4  FFFF               	dw	65535
  7357                           
  7358                           ;Config register IDLOC123 @ 0x2000F6
  7359                           ;	unspecified, using default values
  7360  2000F6                     	org	2097398
  7361  2000F6  FFFF               	dw	65535
  7362                           
  7363                           ;Config register IDLOC124 @ 0x2000F8
  7364                           ;	unspecified, using default values
  7365  2000F8                     	org	2097400
  7366  2000F8  FFFF               	dw	65535
  7367                           
  7368                           ;Config register IDLOC125 @ 0x2000FA
  7369                           ;	unspecified, using default values
  7370  2000FA                     	org	2097402
  7371  2000FA  FFFF               	dw	65535
  7372                           
  7373                           ;Config register IDLOC126 @ 0x2000FC
  7374                           ;	unspecified, using default values
  7375  2000FC                     	org	2097404
  7376  2000FC  FFFF               	dw	65535
  7377                           
  7378                           ;Config register IDLOC127 @ 0x2000FE
  7379                           ;	unspecified, using default values
  7380  2000FE                     	org	2097406
  7381  2000FE  FFFF               	dw	65535
  7382                           
  7383                           	psect	config
  7384                           
  7385                           ;Config register CONFIG1L @ 0x300000
  7386                           ;	External Oscillator mode Selection bits
  7387                           ;	FEXTOSC = OFF, Oscillator not enabled
  7388                           ;	Power-up default value for COSC bits
  7389                           ;	RSTOSC = HFINTOSC_1MHZ, HFINTOSC with HFFRQ = 4 MHz and CDIV = 4:1
  7390  300000                     	org	3145728
  7391  300000  EC                 	db	236
  7392                           
  7393                           ;Config register CONFIG1H @ 0x300001
  7394                           ;	Clock Out Enable bit
  7395                           ;	CLKOUTEN = OFF, CLKOUT function is disabled
  7396                           ;	Clock Switch Enable bit
  7397                           ;	CSWEN = ON, Writing to NOSC and NDIV is allowed
  7398                           ;	Fail-Safe Clock Monitor Enable bit
  7399                           ;	FCMEN = ON, Fail-Safe Clock Monitor enabled
  7400  300001                     	org	3145729
  7401  300001  FF                 	db	255
  7402                           
  7403                           ;Config register CONFIG2L @ 0x300002
  7404                           ;	Master Clear Enable bit
  7405                           ;	MCLRE = EXTMCLR, MCLR pin (RE3) is MCLR
  7406                           ;	Power-up Timer Enable bit
  7407                           ;	PWRTE = OFF, Power up timer disabled
  7408                           ;	Low-power BOR enable bit
  7409                           ;	LPBOREN = OFF, Low power BOR is disabled
  7410                           ;	Brown-out Reset Enable bits
  7411                           ;	BOREN = SBORDIS, Brown-out Reset enabled , SBOREN bit is ignored
  7412  300002                     	org	3145730
  7413  300002  FF                 	db	255
  7414                           
  7415                           ;Config register CONFIG2H @ 0x300003
  7416                           ;	Brown Out Reset Voltage selection bits
  7417                           ;	BORV = VBOR_190, Brown-out Reset Voltage (VBOR) set to 1.90V
  7418                           ;	ZCD Disable bit
  7419                           ;	ZCD = OFF, ZCD disabled. ZCD can be enabled by setting the ZCDSEN bit of ZCDCON
  7420                           ;	PPSLOCK bit One-Way Set Enable bit
  7421                           ;	PPS1WAY = ON, PPSLOCK bit can be cleared and set only once; PPS registers remain locke
      +                          d after one clear/set cycle
  7422                           ;	Stack Full/Underflow Reset Enable bit
  7423                           ;	STVREN = ON, Stack full/underflow will cause Reset
  7424                           ;	Extended Instruction Set Enable bit
  7425                           ;	XINST = OFF, Extended Instruction Set and Indexed Addressing Mode disabled
  7426  300003                     	org	3145731
  7427  300003  FF                 	db	255
  7428                           
  7429                           ;Config register CONFIG3L @ 0x300004
  7430                           ;	WDT Period Select bits
  7431                           ;	WDTCPS = WDTCPS_31, Divider ratio 1:65536; software control of WDTPS
  7432                           ;	WDT operating mode
  7433                           ;	WDTE = OFF, WDT Disabled
  7434  300004                     	org	3145732
  7435  300004  9F                 	db	159
  7436                           
  7437                           ;Config register CONFIG3H @ 0x300005
  7438                           ;	WDT Window Select bits
  7439                           ;	WDTCWS = WDTCWS_7, window always open (100%); software control; keyed access not requi
      +                          red
  7440                           ;	WDT input clock selector
  7441                           ;	WDTCCS = SC, Software Control
  7442  300005                     	org	3145733
  7443  300005  FF                 	db	255
  7444                           
  7445                           ;Config register CONFIG4L @ 0x300006
  7446                           ;	Write Protection Block 0
  7447                           ;	WRT0 = OFF, Block 0 (000800-003FFFh) not write-protected
  7448                           ;	Write Protection Block 1
  7449                           ;	WRT1 = OFF, Block 1 (004000-007FFFh) not write-protected
  7450                           ;	Write Protection Block 2
  7451                           ;	WRT2 = OFF, Block 2 (008000-00BFFFh) not write-protected
  7452                           ;	Write Protection Block 3
  7453                           ;	WRT3 = OFF, Block 3 (00C000-00FFFFh) not write-protected
  7454                           ;	Write Protection Block 4
  7455                           ;	WRT4 = 0x1, unprogrammed default
  7456                           ;	Write Protection Block 5
  7457                           ;	WRT5 = 0x1, unprogrammed default
  7458                           ;	Write Protection Block 6
  7459                           ;	WRT6 = 0x1, unprogrammed default
  7460                           ;	Write Protection Block 7
  7461                           ;	WRT7 = 0x1, unprogrammed default
  7462  300006                     	org	3145734
  7463  300006  FF                 	db	255
  7464                           
  7465                           ;Config register CONFIG4H @ 0x300007
  7466                           ;	Configuration Register Write Protection bit
  7467                           ;	WRTC = OFF, Configuration registers (300000-30000Bh) not write-protected
  7468                           ;	Boot Block Write Protection bit
  7469                           ;	WRTB = OFF, Boot Block (000000-0007FFh) not write-protected
  7470                           ;	Data EEPROM Write Protection bit
  7471                           ;	WRTD = OFF, Data EEPROM not write-protected
  7472                           ;	Scanner Enable bit
  7473                           ;	SCANE = ON, Scanner module is available for use, SCANMD bit can control the module
  7474                           ;	Low Voltage Programming Enable bit
  7475                           ;	LVP = ON, Low voltage programming enabled. MCLR/VPP pin function is MCLR. MCLRE config
      +                          uration bit is ignored
  7476  300007                     	org	3145735
  7477  300007  FF                 	db	255
  7478                           
  7479                           ;Config register CONFIG5L @ 0x300008
  7480                           ;	UserNVM Program Memory Code Protection bit
  7481                           ;	CP = OFF, UserNVM code protection disabled
  7482                           ;	DataNVM Memory Code Protection bit
  7483                           ;	CPD = OFF, DataNVM code protection disabled
  7484  300008                     	org	3145736
  7485  300008  FF                 	db	255
  7486                           
  7487                           ;Config register CONFIG5H @ 0x300009
  7488                           ;	unspecified, using default values
  7489  300009                     	org	3145737
  7490  300009  FF                 	db	255
  7491                           
  7492                           ;Config register CONFIG6L @ 0x30000A
  7493                           ;	Table Read Protection Block 0
  7494                           ;	EBTR0 = OFF, Block 0 (000800-003FFFh) not protected from table reads executed in other
      +                           blocks
  7495                           ;	Table Read Protection Block 1
  7496                           ;	EBTR1 = OFF, Block 1 (004000-007FFFh) not protected from table reads executed in other
      +                           blocks
  7497                           ;	Table Read Protection Block 2
  7498                           ;	EBTR2 = OFF, Block 2 (008000-00BFFFh) not protected from table reads executed in other
      +                           blocks
  7499                           ;	Table Read Protection Block 3
  7500                           ;	EBTR3 = OFF, Block 3 (00C000-00FFFFh) not protected from table reads executed in other
      +                           blocks
  7501                           ;	Table Read Protection Block 4
  7502                           ;	EBTR4 = 0x1, unprogrammed default
  7503                           ;	Table Read Protection Block 5
  7504                           ;	EBTR5 = 0x1, unprogrammed default
  7505                           ;	Table Read Protection Block 6
  7506                           ;	EBTR6 = 0x1, unprogrammed default
  7507                           ;	Table Read Protection Block 7
  7508                           ;	EBTR7 = 0x1, unprogrammed default
  7509  30000A                     	org	3145738
  7510  30000A  FF                 	db	255
  7511                           
  7512                           ;Config register CONFIG6H @ 0x30000B
  7513                           ;	Boot Block Table Read Protection bit
  7514                           ;	EBTRB = OFF, Boot Block (000000-0007FFh) not protected from table reads executed in ot
      +                          her blocks
  7515  30000B                     	org	3145739
  7516  30000B  FF                 	db	255
  7517                           tosu	equ	0xFFF
  7518                           tosh	equ	0xFFE
  7519                           tosl	equ	0xFFD
  7520                           stkptr	equ	0xFFC
  7521                           pclatu	equ	0xFFB
  7522                           pclath	equ	0xFFA
  7523                           pcl	equ	0xFF9
  7524                           tblptru	equ	0xFF8
  7525                           tblptrh	equ	0xFF7
  7526                           tblptrl	equ	0xFF6
  7527                           tablat	equ	0xFF5
  7528                           prodh	equ	0xFF4
  7529                           prodl	equ	0xFF3
  7530                           indf0	equ	0xFEF
  7531                           postinc0	equ	0xFEE
  7532                           postdec0	equ	0xFED
  7533                           preinc0	equ	0xFEC
  7534                           plusw0	equ	0xFEB
  7535                           fsr0h	equ	0xFEA
  7536                           fsr0l	equ	0xFE9
  7537                           wreg	equ	0xFE8
  7538                           indf1	equ	0xFE7
  7539                           postinc1	equ	0xFE6
  7540                           postdec1	equ	0xFE5
  7541                           preinc1	equ	0xFE4
  7542                           plusw1	equ	0xFE3
  7543                           fsr1h	equ	0xFE2
  7544                           fsr1l	equ	0xFE1
  7545                           bsr	equ	0xFE0
  7546                           indf2	equ	0xFDF
  7547                           postinc2	equ	0xFDE
  7548                           postdec2	equ	0xFDD
  7549                           preinc2	equ	0xFDC
  7550                           plusw2	equ	0xFDB
  7551                           fsr2h	equ	0xFDA
  7552                           fsr2l	equ	0xFD9
  7553                           status	equ	0xFD8

Data Sizes:
    Strings     40
    Constant    48
    Data        0
    BSS         83
    Persistent  9
    Stack       0

Auto Spaces:
    Space          Size  Autos    Used
    COMRAM           95     95      95
    BANK0           160      3      95
    BANK1           256      0       0
    BANK2           256      0       0
    BANK3           256      0       0
    BANK4           256      0       0
    BANK5           256      0       0
    BANK6           256      0       0
    BANK7           256      0       0
    BANK8           256      0       0
    BANK9           256      0       0
    BANK10          256      0       0
    BANK11          256      0       0
    BANK12          256      0       0
    BANK14           31      0       0

Pointer List with Targets:

    i2c_write1ByteRegister@data.data	PTR unsigned char  size(2) Largest target is 0

    i2c_read1ByteRegister@d2.data	PTR unsigned char  size(2) Largest target is 0

    i2c_read2ByteRegister@result.data	PTR unsigned char  size(2) Largest target is 0

    i2c_write2ByteRegister@data.data	PTR unsigned char  size(2) Largest target is 0

    I2C1_Read1ByteRegister@returnValue.data	PTR unsigned char  size(2) Largest target is 0

    I2C1_Read2ByteRegister@returnValue.data	PTR unsigned char  size(2) Largest target is 0

    I2C1_Write1ByteRegister@data.data	PTR unsigned char  size(2) Largest target is 0

    I2C1_Write2ByteRegister@data.data	PTR unsigned char  size(2) Largest target is 0

    I2C1_DO_TX$2249$0	PTR void  size(2) Largest target is 5
		 -> I2C1_ReadDataBlock@bufferBlock(COMRAM[4]), I2C1_Write2ByteRegister@data(COMRAM[2]), I2C1_Write1ByteRegister@data(COMRAM[1]), I2C1_Read2ByteRegister@returnValue(COMRAM[2]), 
		 -> I2C1_Read1ByteRegister@returnValue(COMRAM[1]), i2c_readDataBlock@d(COMRAM[4]), i2c_write2ByteRegister@data(COMRAM[2]), i2c_read2ByteRegister@result(COMRAM[2]), 
		 -> i2c_read1ByteRegister@d2(COMRAM[1]), i2c_write1ByteRegister@data(COMRAM[1]), NULL(NULL[0]), 

    I2C1_DO_RX$2255$0	PTR void  size(2) Largest target is 5
		 -> I2C1_ReadDataBlock@bufferBlock(COMRAM[4]), I2C1_Write2ByteRegister@data(COMRAM[2]), I2C1_Write1ByteRegister@data(COMRAM[1]), I2C1_Read2ByteRegister@returnValue(COMRAM[2]), 
		 -> I2C1_Read1ByteRegister@returnValue(COMRAM[1]), i2c_readDataBlock@d(COMRAM[4]), i2c_write2ByteRegister@data(COMRAM[2]), i2c_read2ByteRegister@result(COMRAM[2]), 
		 -> i2c_read1ByteRegister@d2(COMRAM[1]), i2c_write1ByteRegister@data(COMRAM[1]), NULL(NULL[0]), 

    I2C1_DO_TX_EMPTY$2261$0	PTR void  size(2) Largest target is 5
		 -> I2C1_ReadDataBlock@bufferBlock(COMRAM[4]), I2C1_Write2ByteRegister@data(COMRAM[2]), I2C1_Write1ByteRegister@data(COMRAM[1]), I2C1_Read2ByteRegister@returnValue(COMRAM[2]), 
		 -> I2C1_Read1ByteRegister@returnValue(COMRAM[1]), i2c_readDataBlock@d(COMRAM[4]), i2c_write2ByteRegister@data(COMRAM[2]), i2c_read2ByteRegister@result(COMRAM[2]), 
		 -> i2c_read1ByteRegister@d2(COMRAM[1]), i2c_write1ByteRegister@data(COMRAM[1]), NULL(NULL[0]), 

    I2C1_DO_RX_EMPTY$2267$0	PTR void  size(2) Largest target is 5
		 -> I2C1_ReadDataBlock@bufferBlock(COMRAM[4]), I2C1_Write2ByteRegister@data(COMRAM[2]), I2C1_Write1ByteRegister@data(COMRAM[1]), I2C1_Read2ByteRegister@returnValue(COMRAM[2]), 
		 -> I2C1_Read1ByteRegister@returnValue(COMRAM[1]), i2c_readDataBlock@d(COMRAM[4]), i2c_write2ByteRegister@data(COMRAM[2]), i2c_read2ByteRegister@result(COMRAM[2]), 
		 -> i2c_read1ByteRegister@d2(COMRAM[1]), i2c_write1ByteRegister@data(COMRAM[1]), NULL(NULL[0]), 

    I2C1_DO_TX_EMPTY$2266	PTR void  size(2) Largest target is 5
		 -> I2C1_ReadDataBlock@bufferBlock(COMRAM[4]), I2C1_Write2ByteRegister@data(COMRAM[2]), I2C1_Write1ByteRegister@data(COMRAM[1]), I2C1_Read2ByteRegister@returnValue(COMRAM[2]), 
		 -> I2C1_Read1ByteRegister@returnValue(COMRAM[1]), i2c_readDataBlock@d(COMRAM[4]), i2c_write2ByteRegister@data(COMRAM[2]), i2c_read2ByteRegister@result(COMRAM[2]), 
		 -> i2c_read1ByteRegister@d2(COMRAM[1]), i2c_write1ByteRegister@data(COMRAM[1]), NULL(NULL[0]), 

    I2C1_DO_TX_EMPTY$2261	PTR FTN(PTR void ,)enum E360 size(3) Largest target is 1
		 -> I2C1_CallbackReturnReset(), I2C1_CallbackReturnStop(), Absolute function(), rdBlkRegCompleteHandler@i2c1_master_example$F179(), 
		 -> wr2RegCompleteHandler@i2c1_master_example$F168(), wr1RegCompleteHandler@i2c1_master_example$F162(), rd2RegCompleteHandler@i2c1_master_example$F156(), rd1RegCompleteHandler@i2c1_master_example$F145(), 
		 -> rdBlkRegCompleteHandler(), wr2RegCompleteHandler(), rd2RegCompleteHandler(), rd1RegCompleteHandler(), 
		 -> wr1RegCompleteHandler(), 

    I2C1_DO_RX$2260	PTR void  size(2) Largest target is 5
		 -> I2C1_ReadDataBlock@bufferBlock(COMRAM[4]), I2C1_Write2ByteRegister@data(COMRAM[2]), I2C1_Write1ByteRegister@data(COMRAM[1]), I2C1_Read2ByteRegister@returnValue(COMRAM[2]), 
		 -> I2C1_Read1ByteRegister@returnValue(COMRAM[1]), i2c_readDataBlock@d(COMRAM[4]), i2c_write2ByteRegister@data(COMRAM[2]), i2c_read2ByteRegister@result(COMRAM[2]), 
		 -> i2c_read1ByteRegister@d2(COMRAM[1]), i2c_write1ByteRegister@data(COMRAM[1]), NULL(NULL[0]), 

    I2C1_DO_RX$2255	PTR FTN(PTR void ,)enum E360 size(3) Largest target is 1
		 -> I2C1_CallbackReturnReset(), I2C1_CallbackReturnStop(), Absolute function(), rdBlkRegCompleteHandler@i2c1_master_example$F179(), 
		 -> wr2RegCompleteHandler@i2c1_master_example$F168(), wr1RegCompleteHandler@i2c1_master_example$F162(), rd2RegCompleteHandler@i2c1_master_example$F156(), rd1RegCompleteHandler@i2c1_master_example$F145(), 
		 -> rdBlkRegCompleteHandler(), wr2RegCompleteHandler(), rd2RegCompleteHandler(), rd1RegCompleteHandler(), 
		 -> wr1RegCompleteHandler(), 

    I2C1_DO_TX$2254	PTR void  size(2) Largest target is 5
		 -> I2C1_ReadDataBlock@bufferBlock(COMRAM[4]), I2C1_Write2ByteRegister@data(COMRAM[2]), I2C1_Write1ByteRegister@data(COMRAM[1]), I2C1_Read2ByteRegister@returnValue(COMRAM[2]), 
		 -> I2C1_Read1ByteRegister@returnValue(COMRAM[1]), i2c_readDataBlock@d(COMRAM[4]), i2c_write2ByteRegister@data(COMRAM[2]), i2c_read2ByteRegister@result(COMRAM[2]), 
		 -> i2c_read1ByteRegister@d2(COMRAM[1]), i2c_write1ByteRegister@data(COMRAM[1]), NULL(NULL[0]), 

    I2C1_DO_TX$2249	PTR FTN(PTR void ,)enum E360 size(3) Largest target is 1
		 -> I2C1_CallbackReturnReset(), I2C1_CallbackReturnStop(), Absolute function(), rdBlkRegCompleteHandler@i2c1_master_example$F179(), 
		 -> wr2RegCompleteHandler@i2c1_master_example$F168(), wr1RegCompleteHandler@i2c1_master_example$F162(), rd2RegCompleteHandler@i2c1_master_example$F156(), rd1RegCompleteHandler@i2c1_master_example$F145(), 
		 -> rdBlkRegCompleteHandler(), wr2RegCompleteHandler(), rd2RegCompleteHandler(), rd1RegCompleteHandler(), 
		 -> wr1RegCompleteHandler(), 

    I2C1_MasterFsm$2248	const PTR FTN()enum E13076 size(3) Largest target is 1
		 -> I2C1_DO_ADDRESS_NACK(), I2C1_DO_RESET(), I2C1_DO_RX_NACK_RESTART(), I2C1_DO_RX_NACK_STOP(), 
		 -> I2C1_DO_RX_ACK(), I2C1_DO_SEND_STOP(), I2C1_DO_SEND_RESTART(), I2C1_DO_SEND_RESTART_WRITE(), 
		 -> I2C1_DO_SEND_RESTART_READ(), I2C1_DO_TX_EMPTY(), I2C1_DO_RCEN(), I2C1_DO_RX(), 
		 -> I2C1_DO_TX(), I2C1_DO_SEND_ADR_WRITE(), I2C1_DO_SEND_ADR_READ(), I2C1_DO_IDLE(), 

    I2C1_CallbackReturnStop@funPtr	PTR void  size(2) Largest target is 5
		 -> I2C1_ReadDataBlock@bufferBlock(COMRAM[4]), I2C1_Write2ByteRegister@data(COMRAM[2]), I2C1_Write1ByteRegister@data(COMRAM[1]), I2C1_Read2ByteRegister@returnValue(COMRAM[2]), 
		 -> I2C1_Read1ByteRegister@returnValue(COMRAM[1]), i2c_readDataBlock@d(COMRAM[4]), i2c_write2ByteRegister@data(COMRAM[2]), i2c_read2ByteRegister@result(COMRAM[2]), 
		 -> i2c_read1ByteRegister@d2(COMRAM[1]), i2c_write1ByteRegister@data(COMRAM[1]), NULL(NULL[0]), 

    I2C1_CallbackReturnReset@funPtr	PTR void  size(2) Largest target is 5
		 -> I2C1_ReadDataBlock@bufferBlock(COMRAM[4]), I2C1_Write2ByteRegister@data(COMRAM[2]), I2C1_Write1ByteRegister@data(COMRAM[1]), I2C1_Read2ByteRegister@returnValue(COMRAM[2]), 
		 -> I2C1_Read1ByteRegister@returnValue(COMRAM[1]), i2c_readDataBlock@d(COMRAM[4]), i2c_write2ByteRegister@data(COMRAM[2]), i2c_read2ByteRegister@result(COMRAM[2]), 
		 -> i2c_read1ByteRegister@d2(COMRAM[1]), i2c_write1ByteRegister@data(COMRAM[1]), NULL(NULL[0]), 

    cb$0	PTR void  size(2) Largest target is 5
		 -> I2C1_ReadDataBlock@bufferBlock(COMRAM[4]), I2C1_Write2ByteRegister@data(COMRAM[2]), I2C1_Write1ByteRegister@data(COMRAM[1]), I2C1_Read2ByteRegister@returnValue(COMRAM[2]), 
		 -> I2C1_Read1ByteRegister@returnValue(COMRAM[1]), i2c_readDataBlock@d(COMRAM[4]), i2c_write2ByteRegister@data(COMRAM[2]), i2c_read2ByteRegister@result(COMRAM[2]), 
		 -> i2c_read1ByteRegister@d2(COMRAM[1]), i2c_write1ByteRegister@data(COMRAM[1]), NULL(NULL[0]), 

    Absolute function$0	PTR void  size(2) Largest target is 5
		 -> I2C1_ReadDataBlock@bufferBlock(COMRAM[4]), I2C1_Write2ByteRegister@data(COMRAM[2]), I2C1_Write1ByteRegister@data(COMRAM[1]), I2C1_Read2ByteRegister@returnValue(COMRAM[2]), 
		 -> I2C1_Read1ByteRegister@returnValue(COMRAM[1]), i2c_readDataBlock@d(COMRAM[4]), i2c_write2ByteRegister@data(COMRAM[2]), i2c_read2ByteRegister@result(COMRAM[2]), 
		 -> i2c_read1ByteRegister@d2(COMRAM[1]), i2c_write1ByteRegister@data(COMRAM[1]), NULL(NULL[0]), 

    cb$0	PTR void  size(2) Largest target is 5
		 -> I2C1_ReadDataBlock@bufferBlock(COMRAM[4]), I2C1_Write2ByteRegister@data(COMRAM[2]), I2C1_Write1ByteRegister@data(COMRAM[1]), I2C1_Read2ByteRegister@returnValue(COMRAM[2]), 
		 -> I2C1_Read1ByteRegister@returnValue(COMRAM[1]), i2c_readDataBlock@d(COMRAM[4]), i2c_write2ByteRegister@data(COMRAM[2]), i2c_read2ByteRegister@result(COMRAM[2]), 
		 -> i2c_read1ByteRegister@d2(COMRAM[1]), i2c_write1ByteRegister@data(COMRAM[1]), NULL(NULL[0]), 

    S371$0$0	PTR void  size(2) Largest target is 5
		 -> I2C1_ReadDataBlock@bufferBlock(COMRAM[4]), I2C1_Write2ByteRegister@data(COMRAM[2]), I2C1_Write1ByteRegister@data(COMRAM[1]), I2C1_Read2ByteRegister@returnValue(COMRAM[2]), 
		 -> I2C1_Read1ByteRegister@returnValue(COMRAM[1]), i2c_readDataBlock@d(COMRAM[4]), i2c_write2ByteRegister@data(COMRAM[2]), i2c_read2ByteRegister@result(COMRAM[2]), 
		 -> i2c_read1ByteRegister@d2(COMRAM[1]), i2c_write1ByteRegister@data(COMRAM[1]), NULL(NULL[0]), 

    strlen@s	PTR const unsigned char  size(2) Largest target is 32
		 -> dbuf(BANK0[32]), 

    strlen@a	PTR const unsigned char  size(2) Largest target is 32
		 -> dbuf(BANK0[32]), 

    fputs@s	PTR const unsigned char  size(2) Largest target is 32
		 -> dbuf(BANK0[32]), 

    fputs@fp	PTR struct _IO_FILE size(2) Largest target is 0
		 -> NULL(NULL[0]), 

    S1831$source	PTR const unsigned char  size(2) Largest target is 0

    fputc@fp...source	PTR const unsigned char  size(2) Largest target is 0

    S1831$buffer	PTR unsigned char  size(2) Largest target is 0

    fputc@fp...buffer	PTR unsigned char  size(2) Largest target is 0

    fputc@fp	PTR struct _IO_FILE size(2) Largest target is 0
		 -> NULL(NULL[0]), 

    vfprintf@ap	PTR PTR void  size(2) Largest target is 2
		 -> printf@ap(COMRAM[2]), 

    vfprintf@fp	PTR struct _IO_FILE size(2) Largest target is 0
		 -> NULL(NULL[0]), 

    vfprintf@fmt	PTR const unsigned char  size(2) Largest target is 40
		 -> STR_1(CODE[40]), 

    vfprintf@cfmt	PTR unsigned char  size(2) Largest target is 40
		 -> STR_1(CODE[40]), 

    vfpfcnvrt@fp	PTR struct _IO_FILE size(2) Largest target is 0
		 -> NULL(NULL[0]), 

    vfpfcnvrt@ap	PTR PTR void  size(2) Largest target is 2
		 -> printf@ap(COMRAM[2]), 

    vfpfcnvrt@fmt	PTR PTR unsigned char  size(2) Largest target is 2
		 -> vfprintf@cfmt(COMRAM[2]), 

    utoa@fp	PTR struct _IO_FILE size(2) Largest target is 0
		 -> NULL(NULL[0]), 

    pad@fp	PTR struct _IO_FILE size(2) Largest target is 0
		 -> NULL(NULL[0]), 

    pad@buf	PTR unsigned char  size(2) Largest target is 32
		 -> dbuf(BANK0[32]), 

    printf@fmt	PTR const unsigned char  size(2) Largest target is 40
		 -> STR_1(CODE[40]), 

    printf@ap	PTR void [1] size(2) Largest target is 2
		 -> ?_printf(COMRAM[2]), 

    EUSART2_SetErrorHandler@interruptHandler	PTR FTN()void  size(3) Largest target is 1
		 -> EUSART2_DefaultErrorHandler(), 

    EUSART2_ErrorHandler	PTR FTN()void  size(3) Largest target is 1
		 -> EUSART2_DefaultErrorHandler(), Absolute function(), 

    EUSART2_SetOverrunErrorHandler@interruptHandler	PTR FTN()void  size(3) Largest target is 1
		 -> EUSART2_DefaultOverrunErrorHandler(), 

    EUSART2_OverrunErrorHandler	PTR FTN()void  size(3) Largest target is 1
		 -> EUSART2_DefaultOverrunErrorHandler(), Absolute function(), 

    EUSART2_SetFramingErrorHandler@interruptHandler	PTR FTN()void  size(3) Largest target is 1
		 -> EUSART2_DefaultFramingErrorHandler(), 

    EUSART2_FramingErrorHandler	PTR FTN()void  size(3) Largest target is 1
		 -> EUSART2_DefaultFramingErrorHandler(), Absolute function(), 

    I2C1_SetCallback@ptr	PTR void  size(2) Largest target is 5
		 -> I2C1_ReadDataBlock@bufferBlock(COMRAM[4]), I2C1_Write2ByteRegister@data(COMRAM[2]), I2C1_Write1ByteRegister@data(COMRAM[1]), I2C1_Read2ByteRegister@returnValue(COMRAM[2]), 
		 -> I2C1_Read1ByteRegister@returnValue(COMRAM[1]), i2c_readDataBlock@d(COMRAM[4]), i2c_write2ByteRegister@data(COMRAM[2]), i2c_read2ByteRegister@result(COMRAM[2]), 
		 -> i2c_read1ByteRegister@d2(COMRAM[1]), i2c_write1ByteRegister@data(COMRAM[1]), NULL(NULL[0]), 

    I2C1_SetCallback@cb	PTR FTN(PTR void ,)enum E360 size(3) Largest target is 1
		 -> Absolute function(), rdBlkRegCompleteHandler@i2c1_master_example$F179(), wr2RegCompleteHandler@i2c1_master_example$F168(), wr1RegCompleteHandler@i2c1_master_example$F162(), 
		 -> rd2RegCompleteHandler@i2c1_master_example$F156(), rd1RegCompleteHandler@i2c1_master_example$F145(), rdBlkRegCompleteHandler(), wr2RegCompleteHandler(), 
		 -> rd2RegCompleteHandler(), rd1RegCompleteHandler(), wr1RegCompleteHandler(), 

    I2C1_SetAddressNackCallback@ptr	PTR void  size(2) Largest target is 0
		 -> NULL(NULL[0]), 

    I2C1_SetAddressNackCallback@cb	PTR FTN(PTR void ,)enum E360 size(3) Largest target is 1
		 -> Absolute function(), 

    I2C1_SetDataCompleteCallback@ptr	PTR void  size(2) Largest target is 5
		 -> I2C1_ReadDataBlock@bufferBlock(COMRAM[4]), I2C1_Write2ByteRegister@data(COMRAM[2]), I2C1_Write1ByteRegister@data(COMRAM[1]), I2C1_Read2ByteRegister@returnValue(COMRAM[2]), 
		 -> I2C1_Read1ByteRegister@returnValue(COMRAM[1]), i2c_readDataBlock@d(COMRAM[4]), i2c_write2ByteRegister@data(COMRAM[2]), i2c_read2ByteRegister@result(COMRAM[2]), 
		 -> i2c_read1ByteRegister@d2(COMRAM[1]), i2c_write1ByteRegister@data(COMRAM[1]), NULL(NULL[0]), 

    I2C1_SetDataCompleteCallback@cb	PTR FTN(PTR void ,)enum E360 size(3) Largest target is 1
		 -> Absolute function(), rdBlkRegCompleteHandler@i2c1_master_example$F179(), wr2RegCompleteHandler@i2c1_master_example$F168(), wr1RegCompleteHandler@i2c1_master_example$F162(), 
		 -> rd2RegCompleteHandler@i2c1_master_example$F156(), rd1RegCompleteHandler@i2c1_master_example$F145(), rdBlkRegCompleteHandler(), wr2RegCompleteHandler(), 
		 -> rd2RegCompleteHandler(), rd1RegCompleteHandler(), wr1RegCompleteHandler(), 

    I2C1_SetBuffer@buffer	PTR void  size(2) Largest target is 5
		 -> i2c_write1ByteRegister@data.data(COMRAM[3]), i2c_read1ByteRegister@d2.data(COMRAM[3]), i2c_read2ByteRegister@result.data(COMRAM[3]), i2c_write2ByteRegister@data.data(COMRAM[3]), 
		 -> I2C1_Read1ByteRegister@returnValue.data(COMRAM[3]), I2C1_Read2ByteRegister@returnValue.data(COMRAM[3]), I2C1_Write1ByteRegister@data.data(COMRAM[3]), I2C1_Write2ByteRegister@data.data(COMRAM[3]), 
		 -> I2C1_ReadDataBlock@reg(COMRAM[1]), I2C1_ReadDataBlock@bufferBlock(COMRAM[4]), bufferBlock.data(COMRAM[3]), I2C1_Write2ByteRegister@reg(COMRAM[1]), 
		 -> I2C1_Write2ByteRegister@data(COMRAM[2]), I2C1_Write1ByteRegister@reg(COMRAM[1]), I2C1_Write1ByteRegister@data(COMRAM[1]), I2C1_Read2ByteRegister@reg(COMRAM[1]), 
		 -> I2C1_Read2ByteRegister@returnValue(COMRAM[2]), I2C1_Read1ByteRegister@reg(COMRAM[1]), I2C1_Read1ByteRegister@returnValue(COMRAM[1]), i2c_readDataBlock@reg(COMRAM[1]), 
		 -> i2c_readDataBlock@d(COMRAM[4]), d.data(COMRAM[3]), i2c_write2ByteRegister@reg(COMRAM[1]), i2c_write2ByteRegister@data(COMRAM[2]), 
		 -> i2c_read2ByteRegister@reg(COMRAM[1]), i2c_read2ByteRegister@result(COMRAM[2]), i2c_read1ByteRegister@reg(COMRAM[1]), i2c_read1ByteRegister@d2(COMRAM[1]), 
		 -> i2c_write1ByteRegister@reg(COMRAM[1]), i2c_write1ByteRegister@data(COMRAM[1]), NULL(NULL[0]), 

    S371$data_ptr	PTR unsigned char  size(2) Largest target is 5
		 -> I2C1_ReadDataBlock@reg(COMRAM[1]), I2C1_ReadDataBlock@bufferBlock(COMRAM[4]), I2C1_Write2ByteRegister@reg(COMRAM[1]), I2C1_Write2ByteRegister@data(COMRAM[2]), 
		 -> I2C1_Write1ByteRegister@reg(COMRAM[1]), I2C1_Write1ByteRegister@data(COMRAM[1]), I2C1_Read2ByteRegister@reg(COMRAM[1]), I2C1_Read2ByteRegister@returnValue(COMRAM[2]), 
		 -> I2C1_Read1ByteRegister@reg(COMRAM[1]), I2C1_Read1ByteRegister@returnValue(COMRAM[1]), i2c_readDataBlock@reg(COMRAM[1]), i2c_readDataBlock@d(COMRAM[4]), 
		 -> i2c_write2ByteRegister@reg(COMRAM[1]), i2c_write2ByteRegister@data(COMRAM[2]), i2c_read2ByteRegister@reg(COMRAM[1]), i2c_read2ByteRegister@result(COMRAM[2]), 
		 -> i2c_read1ByteRegister@reg(COMRAM[1]), i2c_read1ByteRegister@d2(COMRAM[1]), i2c_write1ByteRegister@reg(COMRAM[1]), i2c_write1ByteRegister@data(COMRAM[1]), 
		 -> NULL(NULL[0]), 

    I2C1_Status.data_ptr	PTR unsigned char  size(2) Largest target is 5
		 -> i2c_write1ByteRegister@data.data(COMRAM[3]), i2c_read1ByteRegister@d2.data(COMRAM[3]), i2c_read2ByteRegister@result.data(COMRAM[3]), i2c_write2ByteRegister@data.data(COMRAM[3]), 
		 -> I2C1_Read1ByteRegister@returnValue.data(COMRAM[3]), I2C1_Read2ByteRegister@returnValue.data(COMRAM[3]), I2C1_Write1ByteRegister@data.data(COMRAM[3]), I2C1_Write2ByteRegister@data.data(COMRAM[3]), 
		 -> I2C1_ReadDataBlock@reg(COMRAM[1]), I2C1_ReadDataBlock@bufferBlock(COMRAM[4]), bufferBlock.data(COMRAM[3]), I2C1_Write2ByteRegister@reg(COMRAM[1]), 
		 -> I2C1_Write2ByteRegister@data(COMRAM[2]), I2C1_Write1ByteRegister@reg(COMRAM[1]), I2C1_Write1ByteRegister@data(COMRAM[1]), I2C1_Read2ByteRegister@reg(COMRAM[1]), 
		 -> I2C1_Read2ByteRegister@returnValue(COMRAM[2]), I2C1_Read1ByteRegister@reg(COMRAM[1]), I2C1_Read1ByteRegister@returnValue(COMRAM[1]), i2c_readDataBlock@reg(COMRAM[1]), 
		 -> i2c_readDataBlock@d(COMRAM[4]), d.data(COMRAM[3]), i2c_write2ByteRegister@reg(COMRAM[1]), i2c_write2ByteRegister@data(COMRAM[2]), 
		 -> i2c_read2ByteRegister@reg(COMRAM[1]), i2c_read2ByteRegister@result(COMRAM[2]), i2c_read1ByteRegister@reg(COMRAM[1]), i2c_read1ByteRegister@d2(COMRAM[1]), 
		 -> i2c_write1ByteRegister@reg(COMRAM[1]), i2c_write1ByteRegister@data(COMRAM[1]), NULL(NULL[0]), 

    S371$callbackPayload	PTR void [6] size(2) Largest target is 5
		 -> I2C1_ReadDataBlock@bufferBlock(COMRAM[4]), I2C1_Write2ByteRegister@data(COMRAM[2]), I2C1_Write1ByteRegister@data(COMRAM[1]), I2C1_Read2ByteRegister@returnValue(COMRAM[2]), 
		 -> I2C1_Read1ByteRegister@returnValue(COMRAM[1]), i2c_readDataBlock@d(COMRAM[4]), i2c_write2ByteRegister@data(COMRAM[2]), i2c_read2ByteRegister@result(COMRAM[2]), 
		 -> i2c_read1ByteRegister@d2(COMRAM[1]), i2c_write1ByteRegister@data(COMRAM[1]), NULL(NULL[0]), 

    I2C1_Status.callbackPayload	PTR void [6] size(2) Largest target is 5
		 -> I2C1_ReadDataBlock@bufferBlock(COMRAM[4]), I2C1_Write2ByteRegister@data(COMRAM[2]), I2C1_Write1ByteRegister@data(COMRAM[1]), I2C1_Read2ByteRegister@returnValue(COMRAM[2]), 
		 -> I2C1_Read1ByteRegister@returnValue(COMRAM[1]), i2c_readDataBlock@d(COMRAM[4]), i2c_write2ByteRegister@data(COMRAM[2]), i2c_read2ByteRegister@result(COMRAM[2]), 
		 -> i2c_read1ByteRegister@d2(COMRAM[1]), i2c_write1ByteRegister@data(COMRAM[1]), NULL(NULL[0]), 

    S371$callbackTable	PTR FTN(PTR void ,)enum E360[6] size(3) Largest target is 1
		 -> I2C1_CallbackReturnReset(), I2C1_CallbackReturnStop(), Absolute function(), rdBlkRegCompleteHandler@i2c1_master_example$F179(), 
		 -> wr2RegCompleteHandler@i2c1_master_example$F168(), wr1RegCompleteHandler@i2c1_master_example$F162(), rd2RegCompleteHandler@i2c1_master_example$F156(), rd1RegCompleteHandler@i2c1_master_example$F145(), 
		 -> rdBlkRegCompleteHandler(), wr2RegCompleteHandler(), rd2RegCompleteHandler(), rd1RegCompleteHandler(), 
		 -> wr1RegCompleteHandler(), 

    I2C1_Status.callbackTable	PTR FTN(PTR void ,)enum E360[6] size(3) Largest target is 1
		 -> I2C1_CallbackReturnReset(), I2C1_CallbackReturnStop(), Absolute function(), rdBlkRegCompleteHandler@i2c1_master_example$F179(), 
		 -> wr2RegCompleteHandler@i2c1_master_example$F168(), wr1RegCompleteHandler@i2c1_master_example$F162(), rd2RegCompleteHandler@i2c1_master_example$F156(), rd1RegCompleteHandler@i2c1_master_example$F145(), 
		 -> rdBlkRegCompleteHandler(), wr2RegCompleteHandler(), rd2RegCompleteHandler(), rd1RegCompleteHandler(), 
		 -> wr1RegCompleteHandler(), 

    i2c1_fsmStateTable	const PTR FTN()enum E13076[16] size(3) Largest target is 1
		 -> I2C1_DO_ADDRESS_NACK(), I2C1_DO_RESET(), I2C1_DO_RX_NACK_RESTART(), I2C1_DO_RX_NACK_STOP(), 
		 -> I2C1_DO_RX_ACK(), I2C1_DO_SEND_STOP(), I2C1_DO_SEND_RESTART(), I2C1_DO_SEND_RESTART_WRITE(), 
		 -> I2C1_DO_SEND_RESTART_READ(), I2C1_DO_TX_EMPTY(), I2C1_DO_RCEN(), I2C1_DO_RX(), 
		 -> I2C1_DO_TX(), I2C1_DO_SEND_ADR_WRITE(), I2C1_DO_SEND_ADR_READ(), I2C1_DO_IDLE(), 

    rdBlkRegCompleteHandler@i2c1_master_example$F179@ptr.data	PTR unsigned char  size(2) Largest target is 0

    rdBlkRegCompleteHandler@i2c1_master_example$F179@ptr	PTR void  size(2) Largest target is 5
		 -> I2C1_ReadDataBlock@bufferBlock(COMRAM[4]), I2C1_Write2ByteRegister@data(COMRAM[2]), I2C1_Write1ByteRegister@data(COMRAM[1]), I2C1_Read2ByteRegister@returnValue(COMRAM[2]), 
		 -> I2C1_Read1ByteRegister@returnValue(COMRAM[1]), i2c_readDataBlock@d(COMRAM[4]), i2c_write2ByteRegister@data(COMRAM[2]), i2c_read2ByteRegister@result(COMRAM[2]), 
		 -> i2c_read1ByteRegister@d2(COMRAM[1]), i2c_write1ByteRegister@data(COMRAM[1]), NULL(NULL[0]), 

    wr2RegCompleteHandler@i2c1_master_example$F168@ptr	PTR void  size(2) Largest target is 5
		 -> I2C1_ReadDataBlock@bufferBlock(COMRAM[4]), I2C1_Write2ByteRegister@data(COMRAM[2]), I2C1_Write1ByteRegister@data(COMRAM[1]), I2C1_Read2ByteRegister@returnValue(COMRAM[2]), 
		 -> I2C1_Read1ByteRegister@returnValue(COMRAM[1]), i2c_readDataBlock@d(COMRAM[4]), i2c_write2ByteRegister@data(COMRAM[2]), i2c_read2ByteRegister@result(COMRAM[2]), 
		 -> i2c_read1ByteRegister@d2(COMRAM[1]), i2c_write1ByteRegister@data(COMRAM[1]), NULL(NULL[0]), 

    wr1RegCompleteHandler@i2c1_master_example$F162@ptr	PTR void  size(2) Largest target is 5
		 -> I2C1_ReadDataBlock@bufferBlock(COMRAM[4]), I2C1_Write2ByteRegister@data(COMRAM[2]), I2C1_Write1ByteRegister@data(COMRAM[1]), I2C1_Read2ByteRegister@returnValue(COMRAM[2]), 
		 -> I2C1_Read1ByteRegister@returnValue(COMRAM[1]), i2c_readDataBlock@d(COMRAM[4]), i2c_write2ByteRegister@data(COMRAM[2]), i2c_read2ByteRegister@result(COMRAM[2]), 
		 -> i2c_read1ByteRegister@d2(COMRAM[1]), i2c_write1ByteRegister@data(COMRAM[1]), NULL(NULL[0]), 

    rd2RegCompleteHandler@i2c1_master_example$F156@ptr	PTR void  size(2) Largest target is 5
		 -> I2C1_ReadDataBlock@bufferBlock(COMRAM[4]), I2C1_Write2ByteRegister@data(COMRAM[2]), I2C1_Write1ByteRegister@data(COMRAM[1]), I2C1_Read2ByteRegister@returnValue(COMRAM[2]), 
		 -> I2C1_Read1ByteRegister@returnValue(COMRAM[1]), i2c_readDataBlock@d(COMRAM[4]), i2c_write2ByteRegister@data(COMRAM[2]), i2c_read2ByteRegister@result(COMRAM[2]), 
		 -> i2c_read1ByteRegister@d2(COMRAM[1]), i2c_write1ByteRegister@data(COMRAM[1]), NULL(NULL[0]), 

    rd1RegCompleteHandler@i2c1_master_example$F145@ptr	PTR void  size(2) Largest target is 5
		 -> I2C1_ReadDataBlock@bufferBlock(COMRAM[4]), I2C1_Write2ByteRegister@data(COMRAM[2]), I2C1_Write1ByteRegister@data(COMRAM[1]), I2C1_Read2ByteRegister@returnValue(COMRAM[2]), 
		 -> I2C1_Read1ByteRegister@returnValue(COMRAM[1]), i2c_readDataBlock@d(COMRAM[4]), i2c_write2ByteRegister@data(COMRAM[2]), i2c_read2ByteRegister@result(COMRAM[2]), 
		 -> i2c_read1ByteRegister@d2(COMRAM[1]), i2c_write1ByteRegister@data(COMRAM[1]), NULL(NULL[0]), 

    bufferBlock.data	PTR unsigned char  size(2) Largest target is 0

    d.data	PTR unsigned char  size(2) Largest target is 0

    S76$data	PTR unsigned char  size(2) Largest target is 0

    rdBlkRegCompleteHandler@p.data	PTR unsigned char  size(2) Largest target is 0

    rdBlkRegCompleteHandler@p	PTR void  size(2) Largest target is 5
		 -> I2C1_ReadDataBlock@bufferBlock(COMRAM[4]), I2C1_Write2ByteRegister@data(COMRAM[2]), I2C1_Write1ByteRegister@data(COMRAM[1]), I2C1_Read2ByteRegister@returnValue(COMRAM[2]), 
		 -> I2C1_Read1ByteRegister@returnValue(COMRAM[1]), i2c_readDataBlock@d(COMRAM[4]), i2c_write2ByteRegister@data(COMRAM[2]), i2c_read2ByteRegister@result(COMRAM[2]), 
		 -> i2c_read1ByteRegister@d2(COMRAM[1]), i2c_write1ByteRegister@data(COMRAM[1]), NULL(NULL[0]), 

    wr2RegCompleteHandler@p	PTR void  size(2) Largest target is 5
		 -> I2C1_ReadDataBlock@bufferBlock(COMRAM[4]), I2C1_Write2ByteRegister@data(COMRAM[2]), I2C1_Write1ByteRegister@data(COMRAM[1]), I2C1_Read2ByteRegister@returnValue(COMRAM[2]), 
		 -> I2C1_Read1ByteRegister@returnValue(COMRAM[1]), i2c_readDataBlock@d(COMRAM[4]), i2c_write2ByteRegister@data(COMRAM[2]), i2c_read2ByteRegister@result(COMRAM[2]), 
		 -> i2c_read1ByteRegister@d2(COMRAM[1]), i2c_write1ByteRegister@data(COMRAM[1]), NULL(NULL[0]), 

    rd2RegCompleteHandler@p	PTR void  size(2) Largest target is 5
		 -> I2C1_ReadDataBlock@bufferBlock(COMRAM[4]), I2C1_Write2ByteRegister@data(COMRAM[2]), I2C1_Write1ByteRegister@data(COMRAM[1]), I2C1_Read2ByteRegister@returnValue(COMRAM[2]), 
		 -> I2C1_Read1ByteRegister@returnValue(COMRAM[1]), i2c_readDataBlock@d(COMRAM[4]), i2c_write2ByteRegister@data(COMRAM[2]), i2c_read2ByteRegister@result(COMRAM[2]), 
		 -> i2c_read1ByteRegister@d2(COMRAM[1]), i2c_write1ByteRegister@data(COMRAM[1]), NULL(NULL[0]), 

    rd1RegCompleteHandler@p	PTR void  size(2) Largest target is 5
		 -> I2C1_ReadDataBlock@bufferBlock(COMRAM[4]), I2C1_Write2ByteRegister@data(COMRAM[2]), I2C1_Write1ByteRegister@data(COMRAM[1]), I2C1_Read2ByteRegister@returnValue(COMRAM[2]), 
		 -> I2C1_Read1ByteRegister@returnValue(COMRAM[1]), i2c_readDataBlock@d(COMRAM[4]), i2c_write2ByteRegister@data(COMRAM[2]), i2c_read2ByteRegister@result(COMRAM[2]), 
		 -> i2c_read1ByteRegister@d2(COMRAM[1]), i2c_write1ByteRegister@data(COMRAM[1]), NULL(NULL[0]), 

    wr1RegCompleteHandler@p	PTR void  size(2) Largest target is 5
		 -> I2C1_ReadDataBlock@bufferBlock(COMRAM[4]), I2C1_Write2ByteRegister@data(COMRAM[2]), I2C1_Write1ByteRegister@data(COMRAM[1]), I2C1_Read2ByteRegister@returnValue(COMRAM[2]), 
		 -> I2C1_Read1ByteRegister@returnValue(COMRAM[1]), i2c_readDataBlock@d(COMRAM[4]), i2c_write2ByteRegister@data(COMRAM[2]), i2c_read2ByteRegister@result(COMRAM[2]), 
		 -> i2c_read1ByteRegister@d2(COMRAM[1]), i2c_write1ByteRegister@data(COMRAM[1]), NULL(NULL[0]), 


Critical Paths under _main in COMRAM

    _main->_printf
    _printf->_vfprintf
    _vfprintf->_vfpfcnvrt
    _vfpfcnvrt->_utoa
    _utoa->_pad
    _pad->_fputs
    _fputs->_fputc
    _fputc->_putch
    _putch->_EUSART2_Write
    _I2C1_SetAddressNackCallback->_I2C1_SetCallback
    _I2C1_MasterWrite->_I2C1_MasterOperation
    _I2C1_MasterFsm->_I2C1_DO_ADDRESS_NACK
    _I2C1_MasterFsm->_I2C1_DO_RX
    _I2C1_MasterFsm->_I2C1_DO_TX
    _I2C1_MasterFsm->_I2C1_DO_TX_EMPTY
    _I2C1_DO_TX_EMPTY->_I2C1_CallbackReturnReset
    _I2C1_DO_TX_EMPTY->_I2C1_CallbackReturnStop
    _I2C1_DO_TX_EMPTY->_rd1RegCompleteHandler
    _I2C1_DO_TX_EMPTY->_rd1RegCompleteHandler@i2c1_master_example$F145
    _I2C1_DO_TX_EMPTY->_rd2RegCompleteHandler
    _I2C1_DO_TX_EMPTY->_rd2RegCompleteHandler@i2c1_master_example$F156
    _I2C1_DO_TX_EMPTY->_rdBlkRegCompleteHandler
    _I2C1_DO_TX_EMPTY->_rdBlkRegCompleteHandler@i2c1_master_example$F179
    _I2C1_DO_TX_EMPTY->_wr1RegCompleteHandler
    _I2C1_DO_TX_EMPTY->_wr1RegCompleteHandler@i2c1_master_example$F162
    _I2C1_DO_TX_EMPTY->_wr2RegCompleteHandler
    _I2C1_DO_TX_EMPTY->_wr2RegCompleteHandler@i2c1_master_example$F168
    _I2C1_DO_TX->_I2C1_CallbackReturnReset
    _I2C1_DO_TX->_I2C1_CallbackReturnStop
    _I2C1_DO_TX->_rd1RegCompleteHandler
    _I2C1_DO_TX->_rd1RegCompleteHandler@i2c1_master_example$F145
    _I2C1_DO_TX->_rd2RegCompleteHandler
    _I2C1_DO_TX->_rd2RegCompleteHandler@i2c1_master_example$F156
    _I2C1_DO_TX->_rdBlkRegCompleteHandler
    _I2C1_DO_TX->_rdBlkRegCompleteHandler@i2c1_master_example$F179
    _I2C1_DO_TX->_wr1RegCompleteHandler
    _I2C1_DO_TX->_wr1RegCompleteHandler@i2c1_master_example$F162
    _I2C1_DO_TX->_wr2RegCompleteHandler
    _I2C1_DO_TX->_wr2RegCompleteHandler@i2c1_master_example$F168
    _I2C1_DO_SEND_ADR_WRITE->_I2C1_MasterSendTxData
    _I2C1_DO_RX->_I2C1_CallbackReturnReset
    _I2C1_DO_RX->_I2C1_CallbackReturnStop
    _I2C1_DO_RX->_rd1RegCompleteHandler
    _I2C1_DO_RX->_rd1RegCompleteHandler@i2c1_master_example$F145
    _I2C1_DO_RX->_rd2RegCompleteHandler
    _I2C1_DO_RX->_rd2RegCompleteHandler@i2c1_master_example$F156
    _I2C1_DO_RX->_rdBlkRegCompleteHandler
    _I2C1_DO_RX->_rdBlkRegCompleteHandler@i2c1_master_example$F179
    _I2C1_DO_RX->_wr1RegCompleteHandler
    _I2C1_DO_RX->_wr1RegCompleteHandler@i2c1_master_example$F162
    _I2C1_DO_RX->_wr2RegCompleteHandler
    _I2C1_DO_RX->_wr2RegCompleteHandler@i2c1_master_example$F168
    _I2C1_DO_ADDRESS_NACK->_I2C1_CallbackReturnReset
    _I2C1_DO_ADDRESS_NACK->_I2C1_CallbackReturnStop
    _I2C1_DO_ADDRESS_NACK->_rd1RegCompleteHandler
    _I2C1_DO_ADDRESS_NACK->_rd1RegCompleteHandler@i2c1_master_example$F145
    _I2C1_DO_ADDRESS_NACK->_rd2RegCompleteHandler
    _I2C1_DO_ADDRESS_NACK->_rd2RegCompleteHandler@i2c1_master_example$F156
    _I2C1_DO_ADDRESS_NACK->_rdBlkRegCompleteHandler
    _I2C1_DO_ADDRESS_NACK->_rdBlkRegCompleteHandler@i2c1_master_example$F179
    _I2C1_DO_ADDRESS_NACK->_wr1RegCompleteHandler
    _I2C1_DO_ADDRESS_NACK->_wr1RegCompleteHandler@i2c1_master_example$F162
    _I2C1_DO_ADDRESS_NACK->_wr2RegCompleteHandler
    _I2C1_DO_ADDRESS_NACK->_wr2RegCompleteHandler@i2c1_master_example$F168
    _wr2RegCompleteHandler@i2c1_master_example$F168->_I2C1_SetDataCompleteCallback
    _wr2RegCompleteHandler->_I2C1_SetDataCompleteCallback
    _wr1RegCompleteHandler@i2c1_master_example$F162->_I2C1_SetDataCompleteCallback
    _wr1RegCompleteHandler->_I2C1_SetDataCompleteCallback
    _rdBlkRegCompleteHandler@i2c1_master_example$F179->_I2C1_SetDataCompleteCallback
    _rdBlkRegCompleteHandler->_I2C1_SetDataCompleteCallback
    _rd2RegCompleteHandler@i2c1_master_example$F156->_I2C1_SetDataCompleteCallback
    _rd2RegCompleteHandler->_I2C1_SetDataCompleteCallback
    _rd1RegCompleteHandler@i2c1_master_example$F145->_I2C1_SetDataCompleteCallback
    _rd1RegCompleteHandler->_I2C1_SetDataCompleteCallback
    _I2C1_SetDataCompleteCallback->_I2C1_SetCallback
    _EUSART2_Initialize->_EUSART2_SetErrorHandler
    _EUSART2_Initialize->_EUSART2_SetFramingErrorHandler
    _EUSART2_Initialize->_EUSART2_SetOverrunErrorHandler

Critical Paths under _main in BANK0

    None.

Critical Paths under _main in BANK1

    None.

Critical Paths under _main in BANK2

    None.

Critical Paths under _main in BANK3

    None.

Critical Paths under _main in BANK4

    None.

Critical Paths under _main in BANK5

    None.

Critical Paths under _main in BANK6

    None.

Critical Paths under _main in BANK7

    None.

Critical Paths under _main in BANK8

    None.

Critical Paths under _main in BANK9

    None.

Critical Paths under _main in BANK10

    None.

Critical Paths under _main in BANK11

    None.

Critical Paths under _main in BANK12

    None.

Critical Paths under _main in BANK14

    None.

Call Graph Tables:

 ---------------------------------------------------------------------------------
 (Depth) Function   	        Calls       Base Space   Used Autos Params    Refs
 ---------------------------------------------------------------------------------
 (0) _main                                                 5     5      0  326431
                                             93 COMRAM     2     2      0
                                              0 BANK0      3     3      0
                  _SYSTEM_Initialize
              _i2c_read2ByteRegister
                             _printf
 ---------------------------------------------------------------------------------
 (1) _printf                                               8     4      4    5547
                                             87 COMRAM     6     2      4
                           _vfprintf
 ---------------------------------------------------------------------------------
 (2) _vfprintf                                             8     2      6    5417
                                             79 COMRAM     8     2      6
                          _vfpfcnvrt
 ---------------------------------------------------------------------------------
 (3) _vfpfcnvrt                                           44    38      6    5064
                                             61 COMRAM    18    12      6
                              _fputc
                               _utoa
 ---------------------------------------------------------------------------------
 (4) _utoa                                                32    22     10    3715
                                             29 COMRAM    32    22     10
                            ___lodiv
                            ___lomod
                                _pad
 ---------------------------------------------------------------------------------
 (5) _pad                                                 11     5      6    2665
                                             18 COMRAM    11     5      6
                              _fputc
                              _fputs
                             _strlen
 ---------------------------------------------------------------------------------
 (6) _strlen                                               4     2      2     166
                                              0 COMRAM     4     2      2
 ---------------------------------------------------------------------------------
 (6) _fputs                                                7     3      4    1213
                                             11 COMRAM     7     3      4
                              _fputc
 ---------------------------------------------------------------------------------
 (7) _fputc                                                9     5      4     812
                                              2 COMRAM     9     5      4
                              _putch
 ---------------------------------------------------------------------------------
 (8) _putch                                                1     1      0      44
                                              1 COMRAM     1     1      0
                      _EUSART2_Write
 ---------------------------------------------------------------------------------
 (9) _EUSART2_Write                                        1     1      0      22
                                              0 COMRAM     1     1      0
 ---------------------------------------------------------------------------------
 (5) ___lomod                                             17     1     16     311
                                              0 COMRAM    17     1     16
 ---------------------------------------------------------------------------------
 (5) ___lodiv                                             25     9     16     314
                                              0 COMRAM    25     9     16
 ---------------------------------------------------------------------------------
 (1) _i2c_read2ByteRegister                                8     6      2  320566
                                             17 COMRAM     8     6      2
                         _I2C1_Close
                   _I2C1_MasterWrite
                          _I2C1_Open
        _I2C1_SetAddressNackCallback
                     _I2C1_SetBuffer
       _I2C1_SetDataCompleteCallback
 ---------------------------------------------------------------------------------
 (2) _I2C1_SetAddressNackCallback                          5     0      5    2782
                                              6 COMRAM     5     0      5
                   _I2C1_SetCallback
 ---------------------------------------------------------------------------------
 (2) _I2C1_Open                                            2     2      0      46
                                              0 COMRAM     2     2      0
                _I2C1_MasterClearIrq
                    _I2C1_MasterOpen
 ---------------------------------------------------------------------------------
 (3) _I2C1_MasterOpen                                      0     0      0       0
 ---------------------------------------------------------------------------------
 (2) _I2C1_MasterWrite                                     0     0      0  309828
               _I2C1_MasterOperation
 ---------------------------------------------------------------------------------
 (3) _I2C1_MasterOperation                                 2     2      0  309828
                                             15 COMRAM     2     2      0
                   _I2C1_MasterStart
                        _I2C1_Poller
 ---------------------------------------------------------------------------------
 (4) _I2C1_Poller                                          0     0      0  309782
                     _I2C1_MasterFsm
            _I2C1_MasterWaitForEvent
 ---------------------------------------------------------------------------------
 (5) _I2C1_MasterWaitForEvent                              0     0      0       0
 ---------------------------------------------------------------------------------
 (5) _I2C1_MasterFsm                                       0     0      0  309782
               _I2C1_DO_ADDRESS_NACK *
                       _I2C1_DO_IDLE *
                       _I2C1_DO_RCEN *
                      _I2C1_DO_RESET *
                         _I2C1_DO_RX *
                     _I2C1_DO_RX_ACK *
            _I2C1_DO_RX_NACK_RESTART *
               _I2C1_DO_RX_NACK_STOP *
              _I2C1_DO_SEND_ADR_READ *
             _I2C1_DO_SEND_ADR_WRITE *
               _I2C1_DO_SEND_RESTART *
          _I2C1_DO_SEND_RESTART_READ *
         _I2C1_DO_SEND_RESTART_WRITE *
                  _I2C1_DO_SEND_STOP *
                         _I2C1_DO_TX *
                   _I2C1_DO_TX_EMPTY *
                _I2C1_MasterClearIrq
                  _I2C1_MasterIsNack
 ---------------------------------------------------------------------------------
 (6) _I2C1_DO_TX_EMPTY                                     2     2      0   77429
                                             13 COMRAM     2     2      0
                   Absolute function *
           _I2C1_CallbackReturnReset *
            _I2C1_CallbackReturnStop *
               _I2C1_DO_SEND_RESTART
                  _I2C1_DO_SEND_STOP
                  _I2C1_MasterSetIrq
              _rd1RegCompleteHandler *
_rd1RegCompleteHandler@i2c1_master_e *
              _rd2RegCompleteHandler *
_rd2RegCompleteHandler@i2c1_master_e *
            _rdBlkRegCompleteHandler *
_rdBlkRegCompleteHandler@i2c1_master *
              _wr1RegCompleteHandler *
_wr1RegCompleteHandler@i2c1_master_e *
              _wr2RegCompleteHandler *
_wr2RegCompleteHandler@i2c1_master_e *
 ---------------------------------------------------------------------------------
 (7) _I2C1_MasterSetIrq                                    0     0      0       0
 ---------------------------------------------------------------------------------
 (6) _I2C1_DO_TX                                           2     2      0   77451
                                             13 COMRAM     2     2      0
                   Absolute function *
           _I2C1_CallbackReturnReset *
            _I2C1_CallbackReturnStop *
          _I2C1_DO_SEND_RESTART_READ
         _I2C1_DO_SEND_RESTART_WRITE
                  _I2C1_DO_SEND_STOP
                  _I2C1_MasterIsNack
              _I2C1_MasterSendTxData
              _rd1RegCompleteHandler *
_rd1RegCompleteHandler@i2c1_master_e *
              _rd2RegCompleteHandler *
_rd2RegCompleteHandler@i2c1_master_e *
            _rdBlkRegCompleteHandler *
_rdBlkRegCompleteHandler@i2c1_master *
              _wr1RegCompleteHandler *
_wr1RegCompleteHandler@i2c1_master_e *
              _wr2RegCompleteHandler *
_wr2RegCompleteHandler@i2c1_master_e *
 ---------------------------------------------------------------------------------
 (6) _I2C1_MasterIsNack                                    0     0      0       0
 ---------------------------------------------------------------------------------
 (7) _I2C1_DO_SEND_RESTART_WRITE                           0     0      0       0
           _I2C1_MasterEnableRestart
 ---------------------------------------------------------------------------------
 (7) _I2C1_DO_SEND_RESTART_READ                            0     0      0       0
           _I2C1_MasterEnableRestart
 ---------------------------------------------------------------------------------
 (6) _I2C1_DO_SEND_ADR_WRITE                               0     0      0      22
              _I2C1_MasterSendTxData
 ---------------------------------------------------------------------------------
 (6) _I2C1_DO_SEND_ADR_READ                                0     0      0      22
              _I2C1_MasterSendTxData
 ---------------------------------------------------------------------------------
 (7) _I2C1_MasterSendTxData                                1     1      0      22
                                              0 COMRAM     1     1      0
 ---------------------------------------------------------------------------------
 (6) _I2C1_DO_RX_ACK                                       0     0      0       0
                 _I2C1_MasterSendAck
 ---------------------------------------------------------------------------------
 (6) _I2C1_DO_RX                                           2     2      0   77429
                                             13 COMRAM     2     2      0
                   Absolute function *
           _I2C1_CallbackReturnReset *
            _I2C1_CallbackReturnStop *
            _I2C1_DO_RX_NACK_RESTART
               _I2C1_DO_RX_NACK_STOP
               _I2C1_MasterGetRxData
                 _I2C1_MasterSendAck
              _rd1RegCompleteHandler *
_rd1RegCompleteHandler@i2c1_master_e *
              _rd2RegCompleteHandler *
_rd2RegCompleteHandler@i2c1_master_e *
            _rdBlkRegCompleteHandler *
_rdBlkRegCompleteHandler@i2c1_master *
              _wr1RegCompleteHandler *
_wr1RegCompleteHandler@i2c1_master_e *
              _wr2RegCompleteHandler *
_wr2RegCompleteHandler@i2c1_master_e *
 ---------------------------------------------------------------------------------
 (7) _I2C1_MasterSendAck                                   0     0      0       0
 ---------------------------------------------------------------------------------
 (7) _I2C1_MasterGetRxData                                 0     0      0       0
 ---------------------------------------------------------------------------------
 (6) _I2C1_DO_RX_NACK_STOP                                 0     0      0       0
                _I2C1_MasterSendNack
 ---------------------------------------------------------------------------------
 (6) _I2C1_DO_RX_NACK_RESTART                              0     0      0       0
                _I2C1_MasterSendNack
 ---------------------------------------------------------------------------------
 (7) _I2C1_MasterSendNack                                  0     0      0       0
 ---------------------------------------------------------------------------------
 (6) _I2C1_DO_RESET                                        0     0      0       0
 ---------------------------------------------------------------------------------
 (6) _I2C1_DO_RCEN                                         0     0      0       0
                 _I2C1_MasterStartRx
 ---------------------------------------------------------------------------------
 (7) _I2C1_MasterStartRx                                   0     0      0       0
 ---------------------------------------------------------------------------------
 (6) _I2C1_DO_IDLE                                         0     0      0       0
 ---------------------------------------------------------------------------------
 (6) _I2C1_DO_ADDRESS_NACK                                 2     2      0   77429
                                             13 COMRAM     2     2      0
                   Absolute function *
           _I2C1_CallbackReturnReset *
            _I2C1_CallbackReturnStop *
               _I2C1_DO_SEND_RESTART
                  _I2C1_DO_SEND_STOP
              _rd1RegCompleteHandler *
_rd1RegCompleteHandler@i2c1_master_e *
              _rd2RegCompleteHandler *
_rd2RegCompleteHandler@i2c1_master_e *
            _rdBlkRegCompleteHandler *
_rdBlkRegCompleteHandler@i2c1_master *
              _wr1RegCompleteHandler *
_wr1RegCompleteHandler@i2c1_master_e *
              _wr2RegCompleteHandler *
_wr2RegCompleteHandler@i2c1_master_e *
 ---------------------------------------------------------------------------------
 (7) _wr2RegCompleteHandler@i2c1_master_example$F168       2     0      2    7712
                                             11 COMRAM     2     0      2
                     _I2C1_SetBuffer
       _I2C1_SetDataCompleteCallback
 ---------------------------------------------------------------------------------
 (7) _wr2RegCompleteHandler                                2     0      2    7712
                                             11 COMRAM     2     0      2
                     _I2C1_SetBuffer
       _I2C1_SetDataCompleteCallback
 ---------------------------------------------------------------------------------
 (7) _wr1RegCompleteHandler@i2c1_master_example$F162       2     0      2    7712
                                             11 COMRAM     2     0      2
                     _I2C1_SetBuffer
       _I2C1_SetDataCompleteCallback
 ---------------------------------------------------------------------------------
 (7) _wr1RegCompleteHandler                                2     0      2    7712
                                             11 COMRAM     2     0      2
                     _I2C1_SetBuffer
       _I2C1_SetDataCompleteCallback
 ---------------------------------------------------------------------------------
 (7) _rdBlkRegCompleteHandler@i2c1_master_example$F179     2     0      2    7734
                                             11 COMRAM     2     0      2
                     _I2C1_SetBuffer
       _I2C1_SetDataCompleteCallback
 ---------------------------------------------------------------------------------
 (7) _rdBlkRegCompleteHandler                              2     0      2    7734
                                             11 COMRAM     2     0      2
                     _I2C1_SetBuffer
       _I2C1_SetDataCompleteCallback
 ---------------------------------------------------------------------------------
 (7) _rd2RegCompleteHandler@i2c1_master_example$F156       2     0      2    7712
                                             11 COMRAM     2     0      2
                     _I2C1_SetBuffer
       _I2C1_SetDataCompleteCallback
 ---------------------------------------------------------------------------------
 (7) _rd2RegCompleteHandler                                2     0      2    7712
                                             11 COMRAM     2     0      2
                     _I2C1_SetBuffer
       _I2C1_SetDataCompleteCallback
 ---------------------------------------------------------------------------------
 (7) _rd1RegCompleteHandler@i2c1_master_example$F145       2     0      2    7712
                                             11 COMRAM     2     0      2
                     _I2C1_SetBuffer
       _I2C1_SetDataCompleteCallback
 ---------------------------------------------------------------------------------
 (7) _rd1RegCompleteHandler                                2     0      2    7712
                                             11 COMRAM     2     0      2
                     _I2C1_SetBuffer
       _I2C1_SetDataCompleteCallback
 ---------------------------------------------------------------------------------
 (2) _I2C1_SetDataCompleteCallback                         5     0      5    3998
                                              6 COMRAM     5     0      5
                   _I2C1_SetCallback
 ---------------------------------------------------------------------------------
 (3) _I2C1_SetCallback                                     6     1      5     914
                                              0 COMRAM     6     1      5
 ---------------------------------------------------------------------------------
 (2) _I2C1_SetBuffer                                       4     0      4    3692
                                              0 COMRAM     4     0      4
 ---------------------------------------------------------------------------------
 (7) _I2C1_DO_SEND_STOP                                    0     0      0       0
                    _I2C1_MasterStop
 ---------------------------------------------------------------------------------
 (8) _I2C1_MasterStop                                      0     0      0       0
 ---------------------------------------------------------------------------------
 (7) _I2C1_DO_SEND_RESTART                                 0     0      0       0
           _I2C1_MasterEnableRestart
 ---------------------------------------------------------------------------------
 (8) _I2C1_MasterEnableRestart                             0     0      0       0
 ---------------------------------------------------------------------------------
 (7) _I2C1_CallbackReturnStop                              2     0      2       0
                                             11 COMRAM     2     0      2
 ---------------------------------------------------------------------------------
 (7) _I2C1_CallbackReturnReset                             2     0      2     265
                                             11 COMRAM     2     0      2
 ---------------------------------------------------------------------------------
 (7) Absolute function(Fake)                               2     0      2       0
 ---------------------------------------------------------------------------------
 (4) _I2C1_MasterStart                                     0     0      0       0
 ---------------------------------------------------------------------------------
 (2) _I2C1_Close                                           1     1      0      24
                                              0 COMRAM     1     1      0
                _I2C1_MasterClearIrq
                   _I2C1_MasterClose
              _I2C1_MasterDisableIrq
 ---------------------------------------------------------------------------------
 (3) _I2C1_MasterDisableIrq                                0     0      0       0
 ---------------------------------------------------------------------------------
 (3) _I2C1_MasterClose                                     0     0      0       0
 ---------------------------------------------------------------------------------
 (3) _I2C1_MasterClearIrq                                  0     0      0       0
 ---------------------------------------------------------------------------------
 (1) _SYSTEM_Initialize                                    0     0      0     294
                 _EUSART2_Initialize
                    _I2C1_Initialize
              _OSCILLATOR_Initialize
             _PIN_MANAGER_Initialize
                     _PMD_Initialize
 ---------------------------------------------------------------------------------
 (2) _PMD_Initialize                                       0     0      0       0
 ---------------------------------------------------------------------------------
 (2) _PIN_MANAGER_Initialize                               0     0      0       0
 ---------------------------------------------------------------------------------
 (2) _OSCILLATOR_Initialize                                0     0      0       0
 ---------------------------------------------------------------------------------
 (2) _I2C1_Initialize                                      0     0      0       0
 ---------------------------------------------------------------------------------
 (2) _EUSART2_Initialize                                   0     0      0     294
            _EUSART2_SetErrorHandler
     _EUSART2_SetFramingErrorHandler
     _EUSART2_SetOverrunErrorHandler
 ---------------------------------------------------------------------------------
 (3) _EUSART2_SetOverrunErrorHandler                       3     0      3      98
                                              0 COMRAM     3     0      3
 ---------------------------------------------------------------------------------
 (3) _EUSART2_SetFramingErrorHandler                       3     0      3      98
                                              0 COMRAM     3     0      3
 ---------------------------------------------------------------------------------
 (3) _EUSART2_SetErrorHandler                              3     0      3      98
                                              0 COMRAM     3     0      3
 ---------------------------------------------------------------------------------
 Estimated maximum stack depth 9
 ---------------------------------------------------------------------------------

 Call Graph Graphs:

 _main (ROOT)
   _SYSTEM_Initialize
     _EUSART2_Initialize
       _EUSART2_SetErrorHandler
       _EUSART2_SetFramingErrorHandler
       _EUSART2_SetOverrunErrorHandler
     _I2C1_Initialize
     _OSCILLATOR_Initialize
     _PIN_MANAGER_Initialize
     _PMD_Initialize
   _i2c_read2ByteRegister
     _I2C1_Close
       _I2C1_MasterClearIrq
       _I2C1_MasterClose
       _I2C1_MasterDisableIrq
     _I2C1_MasterWrite
       _I2C1_MasterOperation
         _I2C1_MasterStart
         _I2C1_Poller
           _I2C1_MasterFsm
             _I2C1_DO_ADDRESS_NACK *
               Absolute function(Fake) *
               _I2C1_CallbackReturnReset *
               _I2C1_CallbackReturnStop *
               _I2C1_DO_SEND_RESTART *
                 _I2C1_MasterEnableRestart
               _I2C1_DO_SEND_STOP *
                 _I2C1_MasterStop
               _rd1RegCompleteHandler *
                 _I2C1_SetBuffer
                 _I2C1_SetDataCompleteCallback
                   _I2C1_SetCallback
               _rd1RegCompleteHandler@i2c1_master_example$F145 *
                 _I2C1_SetBuffer
                 _I2C1_SetDataCompleteCallback
               _rd2RegCompleteHandler *
                 _I2C1_SetBuffer
                 _I2C1_SetDataCompleteCallback
               _rd2RegCompleteHandler@i2c1_master_example$F156 *
                 _I2C1_SetBuffer
                 _I2C1_SetDataCompleteCallback
               _rdBlkRegCompleteHandler *
                 _I2C1_SetBuffer
                 _I2C1_SetDataCompleteCallback
               _rdBlkRegCompleteHandler@i2c1_master_example$F179 *
                 _I2C1_SetBuffer
                 _I2C1_SetDataCompleteCallback
               _wr1RegCompleteHandler *
                 _I2C1_SetBuffer
                 _I2C1_SetDataCompleteCallback
               _wr1RegCompleteHandler@i2c1_master_example$F162 *
                 _I2C1_SetBuffer
                 _I2C1_SetDataCompleteCallback
               _wr2RegCompleteHandler *
                 _I2C1_SetBuffer
                 _I2C1_SetDataCompleteCallback
               _wr2RegCompleteHandler@i2c1_master_example$F168 *
                 _I2C1_SetBuffer
                 _I2C1_SetDataCompleteCallback
             _I2C1_DO_IDLE *
             _I2C1_DO_RCEN *
               _I2C1_MasterStartRx
             _I2C1_DO_RESET *
             _I2C1_DO_RX *
               Absolute function(Fake) *
               _I2C1_CallbackReturnReset *
               _I2C1_CallbackReturnStop *
               _I2C1_DO_RX_NACK_RESTART *
                 _I2C1_MasterSendNack
               _I2C1_DO_RX_NACK_STOP *
                 _I2C1_MasterSendNack
               _I2C1_MasterGetRxData *
               _I2C1_MasterSendAck *
               _rd1RegCompleteHandler *
               _rd1RegCompleteHandler@i2c1_master_example$F145 *
               _rd2RegCompleteHandler *
               _rd2RegCompleteHandler@i2c1_master_example$F156 *
               _rdBlkRegCompleteHandler *
               _rdBlkRegCompleteHandler@i2c1_master_example$F179 *
               _wr1RegCompleteHandler *
               _wr1RegCompleteHandler@i2c1_master_example$F162 *
               _wr2RegCompleteHandler *
               _wr2RegCompleteHandler@i2c1_master_example$F168 *
             _I2C1_DO_RX_ACK *
               _I2C1_MasterSendAck
             _I2C1_DO_RX_NACK_RESTART *
             _I2C1_DO_RX_NACK_STOP *
             _I2C1_DO_SEND_ADR_READ *
               _I2C1_MasterSendTxData
             _I2C1_DO_SEND_ADR_WRITE *
               _I2C1_MasterSendTxData
             _I2C1_DO_SEND_RESTART *
             _I2C1_DO_SEND_RESTART_READ *
               _I2C1_MasterEnableRestart
             _I2C1_DO_SEND_RESTART_WRITE *
               _I2C1_MasterEnableRestart
             _I2C1_DO_SEND_STOP *
             _I2C1_DO_TX *
               Absolute function(Fake) *
               _I2C1_CallbackReturnReset *
               _I2C1_CallbackReturnStop *
               _I2C1_DO_SEND_RESTART_READ *
               _I2C1_DO_SEND_RESTART_WRITE *
               _I2C1_DO_SEND_STOP *
               _I2C1_MasterIsNack *
               _I2C1_MasterSendTxData *
               _rd1RegCompleteHandler *
               _rd1RegCompleteHandler@i2c1_master_example$F145 *
               _rd2RegCompleteHandler *
               _rd2RegCompleteHandler@i2c1_master_example$F156 *
               _rdBlkRegCompleteHandler *
               _rdBlkRegCompleteHandler@i2c1_master_example$F179 *
               _wr1RegCompleteHandler *
               _wr1RegCompleteHandler@i2c1_master_example$F162 *
               _wr2RegCompleteHandler *
               _wr2RegCompleteHandler@i2c1_master_example$F168 *
             _I2C1_DO_TX_EMPTY *
               Absolute function(Fake) *
               _I2C1_CallbackReturnReset *
               _I2C1_CallbackReturnStop *
               _I2C1_DO_SEND_RESTART *
               _I2C1_DO_SEND_STOP *
               _I2C1_MasterSetIrq *
               _rd1RegCompleteHandler *
               _rd1RegCompleteHandler@i2c1_master_example$F145 *
               _rd2RegCompleteHandler *
               _rd2RegCompleteHandler@i2c1_master_example$F156 *
               _rdBlkRegCompleteHandler *
               _rdBlkRegCompleteHandler@i2c1_master_example$F179 *
               _wr1RegCompleteHandler *
               _wr1RegCompleteHandler@i2c1_master_example$F162 *
               _wr2RegCompleteHandler *
               _wr2RegCompleteHandler@i2c1_master_example$F168 *
             _I2C1_MasterClearIrq *
             _I2C1_MasterIsNack *
           _I2C1_MasterWaitForEvent
     _I2C1_Open
       _I2C1_MasterClearIrq
       _I2C1_MasterOpen
     _I2C1_SetAddressNackCallback
       _I2C1_SetCallback
     _I2C1_SetBuffer
     _I2C1_SetDataCompleteCallback
   _printf
     _vfprintf
       _vfpfcnvrt
         _fputc
           _putch
             _EUSART2_Write
         _utoa
           ___lodiv
           ___lomod
           _pad
             _fputc
             _fputs
               _fputc
             _strlen

 Address spaces:
Name               Size   Autos  Total    Cost      Usage
BIGRAM             CFF      0       0      55        0.0%
EEDATA             400      0       0       0        0.0%
BITBIGSFR          100      0       0      54        0.0%
BITBANK12          100      0       0      29        0.0%
BANK12             100      0       0      30        0.0%
BITBANK11          100      0       0      27        0.0%
BANK11             100      0       0      28        0.0%
BITBANK10          100      0       0      25        0.0%
BANK10             100      0       0      26        0.0%
BITBANK9           100      0       0      23        0.0%
BANK9              100      0       0      24        0.0%
BITBANK8           100      0       0      21        0.0%
BANK8              100      0       0      22        0.0%
BITBANK7           100      0       0      19        0.0%
BANK7              100      0       0      20        0.0%
BITBANK6           100      0       0      16        0.0%
BANK6              100      0       0      17        0.0%
BITBANK5           100      0       0      14        0.0%
BANK5              100      0       0      15        0.0%
BITBANK4           100      0       0      12        0.0%
BANK4              100      0       0      13        0.0%
BITBANK3           100      0       0      10        0.0%
BANK3              100      0       0      11        0.0%
BITBANK2           100      0       0       8        0.0%
BANK2              100      0       0       9        0.0%
BITBANK1           100      0       0       6        0.0%
BANK1              100      0       0       7        0.0%
BITBANK0            A0      0       0       4        0.0%
BANK0               A0      3      5F       5       59.4%
BITBIGSFR_1hhh      69      0       0      33        0.0%
BITBIGSFR_1llll     69      0       0      52        0.0%
BITCOMRAM           5F      0       0       0        0.0%
COMRAM              5F     5F      5F       1      100.0%
BITBIGSFR_1llhh     58      0       0      36        0.0%
BITBANK14           1F      0       0      31        0.0%
BANK14              1F      0       0      32        0.0%
BIGRAM_1            1F      0       0      53        0.0%
BITBIGSFR_1llll     17      0       0      50        0.0%
BITBIGSFR_1llll      D      0       0      40        0.0%
BITBIGSFR_1llll      C      0       0      49        0.0%
BITBIGSFR_1llll      B      0       0      51        0.0%
BITBIGSFR_1llll      A      0       0      47        0.0%
BITBIGSFR_1llll      9      0       0      43        0.0%
BITBIGSFR_1llll      9      0       0      41        0.0%
BITBIGSFR_1llll      7      0       0      48        0.0%
BITBIGSFR_1hhll      5      0       0      35        0.0%
BITBIGSFR_1llll      3      0       0      42        0.0%
BITBIGSFR_1llll      3      0       0      39        0.0%
BITBIGSFR_1llll      3      0       0      38        0.0%
BITBIGSFR_1llhl      3      0       0      37        0.0%
BITBIGSFR_1llll      2      0       0      44        0.0%
BITBIGSFR_1llll      1      0       0      45        0.0%
BITBIGSFR_1llll      1      0       0      46        0.0%
BITBIGSFR_1hhlh      1      0       0      34        0.0%
BIGSFR_1             0      0       0     200        0.0%
BIGSFR               0      0       0     200        0.0%
BITSFR_3             0      0       0     200        0.0%
SFR_3                0      0       0     200        0.0%
BITSFR_2             0      0       0     200        0.0%
SFR_2                0      0       0     200        0.0%
BITSFR_1             0      0       0     200        0.0%
SFR_1                0      0       0     200        0.0%
BITSFR               0      0       0     200        0.0%
SFR                  0      0       0     200        0.0%
STACK                0      0       0       2        0.0%
NULL                 0      0       0       0        0.0%
ABS                  0      0      BE      18        0.0%
DATA                 0      0      BE       3        0.0%
CODE                 0      0       0       0        0.0%


Microchip Technology PIC18 Macro Assembler V2.36 build 20220127204148 
Symbol Table                                                                                   Fri Mar 24 08:25:32 2023

                                                      l17 1EBC  
                                                      l53 1E5C  
                                                      l38 1E8C  
                                                      l62 1946  
                                                      l65 1E2C  
                                                      l77 1D36  
                                                     l400 1F18  
                                                     l412 2108  
                                                     l422 1FDA  
                                                     l406 1CAE  
                                                     l191 1D9C  
                                                     l185 1DFC  
                                                     l513 2140  
                                                     l194 1EEC  
                                                     l522 2128  
                                                     l419 1F62  
                                                     l531 2110  
                                                     l284 18C0  
                                                     l612 2166  
                                                     l188 1DCC  
                                                     l452 20F6  
                                                     l516 2138  
                                                     l540 1B20  
                                                     l428 1FBE  
                                                     l197 1CF2  
                                                     l461 154C  
                                                     l525 2120  
                                                     l445 1FA2  
                                                     l710 20C4  
                                                     l534 20DE  
                                                     l622 2088  
                                                     l439 19CA  
                                                     l551 2172  
                                                     l615 214E  
                                                     l455 20A8  
                                                     l519 2130  
                                                     l392 2064  
                                                     l464 1584  
                                                     l528 2118  
                                                     l713 20B6  
                                                     l609 2160  
                                                     l449 1AB4  
                                                     l561 1F84  
                                                     l570 2148  
                                                     l458 2098  
                                                     l618 2078  
                                                     l716 20D2  
                                                     l564 2186  
                                                     l548 2176  
                                                     l396 1794  
                                                     l573 217E  
                                                     l477 1682  
                                                     l582 2182  
                                                     l478 16F2  
                                                     l751 203C  
                                                     l567 216A  
                                                     l591 2154  
                                                     l495 1A48  
                                                     l665 1C26  
                                                     l585 217A  
                                                     l489 20EA  
                                                     l754 2026  
                                                     l594 215A  
                                                     l579 216E  
                                                     l588 2050  
                                                     l692 200E  
                                                     l757 1FF6  
                                                     l689 1FFA  
                                                     l698 2100  
                                                     u900 204E  
                                                     u901 2048  
                                                     u910 17A8  
                                                     u911 17A4  
                                                     u920 17BA  
                                                     u921 17B6  
                                                     u906 2050  
                                                     u930 17E2  
                                                     u931 17DE  
                                                     u940 1818  
                                                     u941 1814  
                                                     u870 195E  
                                                     u950 14D2  
                                                     u871 195A  
                                                     u951 14CE  
                                                     u880 200A  
                                                     u881 2006  
                                                     u890 1F50  
                                                     u970 157C  
                                                     u891 1F4C  
                                                     u971 1578  
                                                     u980 1678  
                                                     u981 1674  
                                                     u968 1500  
                                                     u969 1514  
                                                     u998 16A6  
                                                     u999 16BA  
                                   ?_I2C1_MasterOperation 0001  
                  __end_of_EUSART2_SetFramingErrorHandler 20C6  
                          _EUSART2_SetFramingErrorHandler 20B8  
                                                     _pad 1586  
                                                     prod 000FF3  
                                                     tosl 000FFD  
                                                     wreg 000FE8  
                                  ?_I2C1_MasterSendTxData 0001  
                                    _I2C1_DO_RX_NACK_STOP 2112  
                               ?_I2C1_MasterEnableRestart 0001  
                                fp__I2C1_DO_SEND_ADR_READ 0000  
                                 fp__I2C1_DO_SEND_RESTART 0000  
                                    I2C1_SetBuffer@buffer 0001  
                                 ??_rd2RegCompleteHandler 000E  
                                                    l1221 13EC  
                                                    l1214 13CC  
                                                    l1231 14BC  
                                                    l1224 149C  
                                                    l2201 1FDC  
                                                    l3001 13C6  
                                                    l2203 2010  
                                                    l3011 1436  
                                                    l3003 13EE  
                                                    l3101 1C72  
                                                    l3013 1464  
                                                    l3005 140C  
                                                    l3021 1596  
                                                    l1510 1B7E  
                                                    l3111 1CA0  
                                                    l3103 1C82  
                                                    l3015 1484  
                                                    l3007 1414  
                                                    l3031 15EC  
                                                    l3023 15AA  
                                                    l1511 1B86  
                                                    l1504 12FC  
                                                    l3121 20B8  
                                                    l2161 182C  
                                                    l3041 2180  
                                                    l3113 1CA4  
                                                    l3105 1C84  
                                                    l3201 1772  
                                                    l3017 1496  
                                                    l3009 1428  
                                                    l3033 15F0  
                                                    l3025 15B8  
                                                    l3123 20AA  
                                                    l2171 188A  
                                                    l2163 1844  
                                                    l3043 1F86  
                                                    l3115 1CA8  
                                                    l3107 1C88  
                                                    l3203 177E  
                                                    l3211 1792  
                                                    l1523 182A  
                                                    l1531 1C6A  
                                                    l3035 161E  
                                                    l3027 15C4  
                                                    l3019 1586  
                                                    l3051 0F5A  
                                                    l3131 1192  
                                                    l3125 20C6  
                                                    l2181 1898  
                                                    l2173 188C  
                                                    l2165 184A  
                                                    l3221 1EEE  
                                                    l3045 1F8A  
                                                    l3109 1C98  
                                                    l3117 1CAC  
                                                    l3205 1786  
                                                    l3037 1632  
                                                    l3029 15D8  
                                                    l3061 0FCA  
                                                    l3053 0F6A  
                                                    l3133 11A4  
                                                    l1454 1F3E  
                                                    l2183 189A  
                                                    l2175 188E  
                                                    l2167 1856  
                                                    l3231 1F16  
                                                    l3223 1EF2  
                                                    l3047 1F8E  
                                                    l3207 178A  
                                                    l3215 1FA4  
                                                    l3071 105A  
                                                    l3063 0FD2  
                                                    l3055 0F6C  
                                                    l3143 1252  
                                                    l3135 11A8  
                                                    l3127 115C  
                                                    l3241 1C10  
                                                    l2185 189C  
                                                    l2177 1890  
                                                    l2169 1860  
                                                    l3225 1F02  
                                                    l3049 1F92  
                                                    l3217 2102  
                                                    l3209 178E  
                                                    l1537 1D6C  
                                                    l3081 1122  
                                                    l3065 0FD8  
                                                    l3073 10BE  
                                                    l3057 0F86  
                                                    l3161 12EA  
                                                    l3145 127A  
                                                    l3153 12A8  
                                                    l3137 11D0  
                                                    l3129 1184  
                                                    l1482 160E  
                                                    l3243 1C20  
                                                    l3235 1BDA  
                                                    l2187 2052  
                                                    l2179 1896  
                                                    l3227 1F06  
                                                    l3091 1F82  
                                                    l3171 170A  
                                                    l3075 10D0  
                                                    l3083 1132  
                                                    l3067 104E  
                                                    l3059 0FC2  
                                                    l1491 0F9A  
                                                    l3155 12B6  
                                                    l3147 1288  
                                                    l3139 121A  
                                                    l3251 1B5E  
                                                    l1484 164A  
                                                    l3237 1BF0  
                                                    l2189 2062  
                                                    l3229 1F12  
                                                    l2613 194A  
                                                    l2701 1D9A  
                                                    l3181 1718  
                                                    l3173 170E  
                                                    l3261 1906  
                                                    l3253 18C4  
                                                    l2621 200A  
                                                    l3077 10EE  
                                                    l3069 1054  
                                                    l3149 129C  
                                                    l3245 1B22  
                                                    l3239 1C00  
                                                    l3095 215C  
                                                    l2623 1F40  
                                                    l2615 195E  
                                                    l2631 1FC0  
                                                    l3087 1F64  
                                                    l3191 1742  
                                                    l3183 1720  
                                                    l3175 1710  
                                                    l3167 16F6  
                                                    l3263 191E  
                                                    l3255 18C4  
                                                    l1479 15CC  
                                                    l3079 1108  
                                                    l3159 12C2  
                                                    l3247 1B2A  
                                                    l3097 2184  
                                                    l2633 217C  
                                                    l2625 1F50  
                                                    l2617 1996  
                                                    l2705 1EBE  
                                                    l2641 1E8E  
                                                    l2713 1CB0  
                                                    l2721 203E  
                                                    l2801 20F4  
                                                    l3089 1F72  
                                                    l3193 174A  
                                                    l3185 1722  
                                                    l3177 1712  
                                                    l3169 16FA  
                                                    l3265 1922  
                                                    l3257 18DA  
                                                    l1489 0F92  
                                                    l3249 1B38  
                                                    l3283 2028  
                                                    l2635 2178  
                                                    l2627 1F58  
                                                    l2707 1ED2  
                                                    l2643 1EA2  
                                                    l2651 1E72  
                                                    l2715 1CD8  
                                                    l3099 1C6E  
                                                    l3195 1756  
                                                    l3187 172E  
                                                    l3179 1714  
                                                    l3267 1936  
                                                    l3259 18F2  
                                                    l2619 1FFA  
                                                    l1499 115A  
                                                    l3531 1B8C  
                                                    l3285 2038  
                                                    l2629 1F60  
                                                    l2709 1EEA  
                                                    l2645 1EBA  
                                                    l2653 1E8A  
                                                    l2661 1E5A  
                                                    l2717 1CF0  
                                                    l2637 2156  
                                                    l2725 2144  
                                                    l2901 19E0  
                                                    l2805 209A  
                                                    l2813 208A  
                                                    l2821 14BE  
                                                    l2733 2132  
                                                    l2741 2126  
                                                    l3197 175E  
                                                    l3189 1736  
                                                    l3541 1BD0  
                                                    l3533 1B8C  
                                                    l2911 19EE  
                                                    l2807 209E  
                                                    l2815 208E  
                                                    l2727 213A  
                                                    l2735 2136  
                                                    l2751 210A  
                                                    l3623 1B0A  
                                                    l3199 176A  
                                                    l2639 20FA  
                                                    l3287 1F1A  
                                                    l3535 1B9E  
                                                    l2649 1E5E  
                                                    l2657 1E2E  
                                                    l2665 1DFE  
                                                    l2673 1CF4  
                                                    l2681 1DCE  
                                                    l2745 2168  
                                                    l2905 19E6  
                                                    l2809 20A6  
                                                    l2817 2096  
                                                    l2841 1550  
                                                    l2833 14E6  
                                                    l2825 14D6  
                                                    l3625 16CC  
                                                    l2729 213E  
                                                    l2753 210E  
                                                    l3289 1F22  
                                                    l3537 1BCC  
                                                    l3529 1B88  
                                                    l2659 1E42  
                                                    l2667 1E12  
                                                    l2675 1D1C  
                                                    l2683 1DE2  
                                                    l2691 1DB2  
                                                    l2763 216C  
                                                    l2771 214A  
                                                    l2843 1562  
                                                    l3627 1526  
                                                    l2739 2122  
                                                    l2923 20D4  
                                                    l2931 1AB6  
                                                    l3539 1BCE  
                                                    l2669 1E2A  
                                                    l2677 1D34  
                                                    l2685 1DFA  
                                                    l2693 1DCA  
                                                    l2773 2174  
                                                    l2749 2150  
                                                    l3629 1A22  
                                                    l2845 157C  
                                                    l2829 14DE  
                                                    l2861 1678  
                                                    l2765 212A  
                                                    l2917 211A  
                                                    l2757 2112  
                                                    l2925 20D8  
                                                    l2933 1ABA  
                                                    l2781 1796  
                                                    ?_pad 0013  
                                                    l2847 1582  
                                                    l2839 14EE  
                                                    l2863 167C  
                                                    l2855 164C  
                                                    l2767 212E  
                                                    l2919 211E  
                                                    l2759 2116  
                                                    l2927 20DC  
                                                    l2935 1AC2  
                                                    l2791 1818  
                                                    l2783 17A8  
                                                    l2951 1C28  
                                                    l2689 1D9E  
                                                    l2697 1D6E  
                                                    l2777 2170  
                                                    l2873 1690  
                                                    l2857 165A  
                                                    l2945 1AD2  
                                                    l2785 17BA  
                                                    l2953 1C34  
                                                    l2961 1D44  
                                                    l2795 2162  
                                                    l2699 1D82  
                                                    l2859 1660  
                                                    l2939 1ACA  
                                                    l2971 1A4A  
                                                    l2787 17C4  
                                                    l2955 1C46  
                                                    l2963 1D48  
                                                    l2893 19CC  
                                                    l2797 20EC  
                                                    l2869 1688  
                                                    l2885 20E0  
                                                    l2973 1A4E  
                                                    l2981 12FE  
                                                    l2789 17E2  
                                                    l2957 1C4A  
                                                    l2965 1D60  
                                                    l2895 19D4  
                                                    l2799 20F0  
                                                    l2879 1698  
                                                    l2887 20E4  
                                                    l2975 1A5E  
                                                    l2991 1352  
                                                    l2983 130A  
                                                    l2959 1D38  
                                                    l2889 20E8  
                                                    l2977 1A72  
                                                    l2993 1364  
                                                    l2985 1328  
                                                    l2899 19DC  
                                                    l2979 1A78  
                                                    l2995 1392  
                                                    l2987 1330  
                                                    l2997 13B2  
                                                    l2989 1344  
                                                    l2999 13B4  
                                                    STR_1 0F31  
                                                    u1100 1352  
                                                    u1020 1C6A  
                                                    u1101 134E  
                                                    u1021 1C66  
                                                    u1110 1392  
                                                    u1030 1D60  
                                                    u1111 138E  
                                                    u1031 1D5C  
                                                    u1008 19FC  
                                                    u1040 2088  
                                                    u1120 140C  
                                                    u1200 0F6A  
                                                    u1009 1A10  
                                                    u1041 2084  
                                                    u1121 1408  
                                                    u1201 0F66  
                                                    u1018 1AE4  
                                                    u1050 1A5E  
                                                    u1130 1436  
                                                    u1210 0F86  
                                                    u1019 1AF8  
                                                    u1051 1A5A  
                                                    u1131 1432  
                                                    u1211 0F82  
                                                    u1060 1A72  
                                                    u1140 1464  
                                                    u1220 10D0  
                                                    u1300 1184  
                                                    u1061 1A6E  
                                                    u1141 1460  
                                                    u1221 10CC  
                                                    u1301 1180  
                                                    u1150 1596  
                                                    u1230 10EE  
                                                    u1310 11D0  
                                                    u1151 1592  
                                                    u1231 10EA  
                                                    u1311 11CC  
                                                    u1160 15B8  
                                                    u1240 1108  
                                                    u1320 127A  
                                                    u1081 1304  
                                                    u1161 15B4  
                                                    u1241 1104  
                                                    u1321 1276  
                                                    u1330 170A  
                                                    u1090 1328  
                                                    u1170 160E  
                                                    u1250 1122  
                                                    u1331 1706  
                                                    u1091 1324  
                                                    u1171 160A  
                                                    u1251 111E  
                                                    u1340 1F02  
                                                    u1180 161E  
                                                    u1260 1132  
                                                    u1341 1EFE  
                                                    u1181 161A  
                                                    u1261 112E  
                                                    _LATA 000F82  
                                                    u1078 1A96  
                                                    u1190 1FA2  
                                                    u1270 1F72  
                                                    u1350 1B7E  
                                                    _LATB 000F83  
                                                    u1079 1AB0  
                                                    u1191 1F9E  
                                                    u1271 1F6E  
                                                    u1351 1B7A  
                                                    _LATC 000F84  
                                                    u1280 1C82  
                                                    u1360 18DA  
                                                    _LATD 000F85  
                                                    u1281 1C7E  
                                                    u1361 18D6  
                                                    _LATE 000F86  
                                                    u1290 1C98  
                                                    u1370 1936  
                                                    u1291 1C94  
                                                    u1371 1932  
                                                    u1705 1BB4  
                                                    _PMD0 000EDC  
                                                    _PMD1 000EDD  
                                                    _PMD2 000EDE  
                                                    _PMD3 000EDF  
                                                    _PMD4 000EE0  
                                                    _PMD5 000EE1  
                                                    _WPUA 000F0B  
                                                    _WPUB 000F13  
                                                    _WPUC 000F1B  
                                                    _WPUD 000F20  
                                                    _WPUE 000F28  
                                 ??_wr2RegCompleteHandler 000E  
                                        ??_I2C1_MasterFsm 0010  
                                           _EUSART2_Write 1FF8  
                               ??_I2C1_CallbackReturnStop 000E  
                                                    _dbuf 0093  
                                                    _main 1B88  
                                                    _prec 008E  
                                                    _nout 008A  
                                                    pad@i 001A  
                                                    pad@p 0017  
                                                    fsr1h 000FE2  
                                                    fsr2h 000FDA  
                                                    indf2 000FDF  
                                                    fsr1l 000FE1  
                                                    pad@w 001C  
                                                    fsr2l 000FD9  
                                                    _utoa 0F5A  
                                                    prodh 000FF4  
                                                    prodl 000FF3  
                                                    start 0000  
                                        ??_I2C1_SetBuffer 0005  
                                            ___param_bank 000000  
                           I2C1_CallbackReturnStop@funPtr 000C  
                                                   ??_pad 0019  
                           __end_of_OSCILLATOR_Initialize 2028  
                                       __end_of_I2C1_Open 1796  
                                                   ?_main 0001  
                                                   ?_utoa 001E  
                                         __end_of___lodiv 13EE  
                                         __end_of___lomod 14BE  
                              __end_of_i2c1_fsmStateTable 0F31  
                                                   _OSCEN 000ED7  
                                            vfpfcnvrt@fmt 0040  
                                            vfpfcnvrt@llu 0048  
                                                   _TRISA 000F87  
                                                   _TRISB 000F88  
                                                   _TRISC 000F89  
                                                   _TRISD 000F8A  
                                                   _TRISE 000F8B  
                                  ??_I2C1_MasterGetRxData 0001  
                                   ?_I2C1_DO_RX_NACK_STOP 0001  
                              ??_I2C1_CallbackReturnReset 000E  
                                       ??_I2C1_MasterOpen 0001  
                                       ??_I2C1_MasterStop 0001  
                                       ??_I2C1_Initialize 0001  
                                                   _flags 0090  
                                                   _fputc 1796  
                                                   _fputs 1C28  
                                                   pad@fp 0013  
                                                   _width 008C  
                                                   _putch 20F8  
       rd1RegCompleteHandler@i2c1_master_example$F145@ptr 000C  
                                          ?_EUSART2_Write 0001  
       wr1RegCompleteHandler@i2c1_master_example$F162@ptr 000C  
                                                   pclath 000FFA  
       rd2RegCompleteHandler@i2c1_master_example$F156@ptr 000C  
                                                   tablat 000FF5  
       wr2RegCompleteHandler@i2c1_master_example$F168@ptr 000C  
     rdBlkRegCompleteHandler@i2c1_master_example$F179@ptr 000C  
                                                   utoa@d 0020  
                                                   utoa@i 003C  
                                                   utoa@n 0034  
                                                   utoa@p 0030  
                                                   utoa@w 0032  
                                                   status 000FD8  
                                            ??_I2C1_DO_RX 000E  
                                            ??_I2C1_DO_TX 000E  
                                        ___lodiv@dividend 0001  
                                  ??_I2C1_DO_ADDRESS_NACK 000E  
                                            ??_I2C1_Close 0001  
                                fp__rd1RegCompleteHandler 0000  
                                         __initialization 2066  
                                            __end_of_main 1BDA  
                                fp__wr1RegCompleteHandler 0000  
                                            __end_of_utoa 115C  
                            fp__I2C1_DO_SEND_RESTART_READ 0000  
                                  ??_I2C1_MasterOperation 0010  
                                                  ??_main 00BC  
                                                  ??_utoa 0028  
                                           __activetblptr 000003  
                             _EUSART2_DefaultErrorHandler 000000  
                                      __end_of_I2C1_DO_RX 16F4  
                                      __end_of_I2C1_DO_TX 1586  
                                        ___lodiv@quotient 0011  
                                      __end_of_I2C1_Close 1F1A  
                              __end_of_EUSART2_Initialize 1C28  
                                                  ?_fputc 0003  
                                                  ?_fputs 000C  
                                                  _ANSELA 000F0C  
                                                  ?_putch 0001  
                                                  _ANSELB 000F14  
                                                  _ANSELC 000F1C  
                                                  _ANSELD 000F21  
                                                  _ANSELE 000F29  
                                   _i2c_read2ByteRegister 18C2  
                                                  _RC2REG 000E94  
                                                  _RB1PPS 000EEB  
                                                  _RB2PPS 000EEC  
                                                  _RD0PPS 000EFA  
                                                  _RC2STA 000E98  
                                                  _RB6PPS 000EF0  
                                                  _ODCONA 000F0A  
                                                  _ODCONB 000F12  
                                                  _ODCONC 000F1A  
                                                  _ODCOND 000F1F  
                                                  _ODCONE 000F27  
                                                  _INLVLA 000F08  
                                                  _INLVLB 000F10  
                                                  _INLVLC 000F18  
                                                  _INLVLD 000F1D  
                                                  _INLVLE 000F25  
                                                  _OSCFRQ 000ED9  
                                                  _RX2PPS 000E88  
                                                  _TX2REG 000E95  
                                                  _TX2STA 000E99  
                                       ?_I2C1_MasterClose 0001  
                                rdBlkRegCompleteHandler@p 000C  
                                 ??_I2C1_MasterDisableIrq 0001  
                                       ?_I2C1_MasterStart 0001  
                                       ?_I2C1_MasterWrite 0001  
                                ?_I2C1_MasterWaitForEvent 0001  
                                      ??_I2C1_MasterClose 0001  
                                        _I2C1_DO_TX_EMPTY 19CC  
                                      ??_I2C1_MasterStart 0001  
                                      ??_I2C1_MasterWrite 0012  
                                            vfprintf@cfmt 0056  
                                               ??___lodiv 0011  
                                               ??___lomod 0011  
                                                  clear_0 206C  
                                                  isa$std 000001  
                             _EUSART2_FramingErrorHandler 00B9  
                                                  _printf 1F1A  
                                                  pad@buf 0015  
                                ??_I2C1_DO_SEND_ADR_WRITE 0002  
                                                  _strlen 1D38  
                                       ?_I2C1_SetCallback 0001  
                                  ??_I2C1_DO_RX_NACK_STOP 0001  
                                   _I2C1_DO_SEND_ADR_READ 209A  
                                                  fputc@c 0003  
                                          _PMD_Initialize 1FDC  
                                                  fputs@c 0010  
                                                  fputs@i 0011  
                                                  fputs@s 000C  
                           ?_I2C1_SetDataCompleteCallback 0007  
                                      ??_I2C1_SetCallback 0006  
                                            __mediumconst 0000  
                                                  tblptrh 000FF7  
                                                  tblptrl 000FF6  
                                                  tblptru 000FF8  
                                        __end_of_vfprintf 1B88  
                                                  utoa@fp 001E  
                                         ??_EUSART2_Write 0001  
                                 _I2C1_DO_RX_NACK_RESTART 210A  
                              fp__I2C1_DO_RX_NACK_RESTART 0000  
                                       _SYSTEM_Initialize 2028  
                          I2C1_SetDataCompleteCallback@cb 0007  
                                              __accesstop 0060  
                                 __end_of__initialization 2072  
                         I2C1_MasterOperation@returnValue 0011  
                                      ?_SYSTEM_Initialize 0001  
                                           ___rparam_used 000001  
                                           ??_I2C1_Poller 0010  
                                 _rdBlkRegCompleteHandler 1CF4  
                              fp__rdBlkRegCompleteHandler 0000  
                                          __pcstackCOMRAM 0001  
                                     ??_SYSTEM_Initialize 0004  
                        __end_of_I2C1_MasterEnableRestart 2180  
                                           __end_of_fputc 182C  
                                           __end_of_fputs 1C6C  
                                           __end_of_putch 2102  
                                  __end_of_PMD_Initialize 1FF8  
                            ??_I2C1_DO_SEND_RESTART_WRITE 0001  
                                 ??_I2C1_MasterSendTxData 0001  
                                ?_EUSART2_SetErrorHandler 0001  
                                   __end_of_I2C1_DO_RESET 20E0  
                                  ?_i2c_read2ByteRegister 0012  
                                                 ??_fputc 0007  
                               __end_of_SYSTEM_Initialize 203E  
                                                 ??_fputs 0010  
                                                 ??_putch 0002  
                                              __pbssBANK0 0060  
                         __end_of_I2C1_MasterWaitForEvent 208A  
                           __end_of_rd2RegCompleteHandler 1E5E  
                                    I2C1_Open@returnValue 0002  
                        ??_EUSART2_SetFramingErrorHandler 0004  
                         ?_EUSART2_SetFramingErrorHandler 0001  
                           __end_of_wr2RegCompleteHandler 1E2E  
                                   _rd1RegCompleteHandler 1E5E  
                                       _I2C1_DO_SEND_STOP 2122  
                                   _wr1RegCompleteHandler 1E8E  
                                           fp__I2C1_DO_RX 0000  
                                           fp__I2C1_DO_TX 0000  
                                         fp__I2C1_DO_IDLE 0000  
                                         fp__I2C1_DO_RCEN 0000  
                                 fp__I2C1_DO_ADDRESS_NACK 0000  
                                      ?_I2C1_DO_SEND_STOP 0001  
                                         _I2C1_MasterOpen 1F64  
                                         _I2C1_MasterStop 2178  
                                         _I2C1_Initialize 2052  
                                     __end_of_I2C1_Poller 1FA4  
                                       fp__I2C1_DO_RX_ACK 0000  
                                                 ?_printf 0058  
                                         ?_PMD_Initialize 0001  
                                  ?_I2C1_DO_SEND_ADR_READ 0001  
                                     ??_I2C1_DO_SEND_STOP 0001  
                                                 ?_strlen 0001  
                                       _I2C1_MasterIsNack 203E  
                                                 _SP2BRGH 000E97  
                                                 _SP2BRGL 000E96  
                                                 _OSCCON1 000ED3  
                                                 _OSCCON3 000ED5  
                                               _I2C1_Open 16F4  
                               ??_I2C1_DO_RX_NACK_RESTART 0001  
                                                 _OSCTUNE 000ED8  
                                       _I2C1_MasterSetIrq 214A  
                                                 _SSP1ADD 000F92  
                                                 _SLRCONA 000F09  
                                                 _SLRCONB 000F11  
                                                 _SLRCONC 000F19  
                                                 _SLRCOND 000F1E  
                                                 _SLRCONE 000F26  
                                                 _SSP1BUF 000F91  
                                      ?_I2C1_MasterIsNack 0001  
                              ?_I2C1_DO_SEND_RESTART_READ 0001  
                          ??_I2C1_SetDataCompleteCallback 000C  
                                        ___lomod@dividend 0001  
                                      ?_I2C1_MasterSetIrq 0001  
                                      _i2c1_fsmStateTable 0F01  
                                     ??_I2C1_MasterIsNack 0001  
       fp__rd1RegCompleteHandler@i2c1_master_example$F145 0000  
  __end_of_rd1RegCompleteHandler@i2c1_master_example$F145 1DFE  
          _rd1RegCompleteHandler@i2c1_master_example$F145 1DCE  
       fp__wr1RegCompleteHandler@i2c1_master_example$F162 0000  
  __end_of_wr1RegCompleteHandler@i2c1_master_example$F162 1D9E  
          _wr1RegCompleteHandler@i2c1_master_example$F162 1D6E  
       fp__rd2RegCompleteHandler@i2c1_master_example$F156 0000  
  __end_of_rd2RegCompleteHandler@i2c1_master_example$F156 1DCE  
          _rd2RegCompleteHandler@i2c1_master_example$F156 1D9E  
       fp__wr2RegCompleteHandler@i2c1_master_example$F168 0000  
  __end_of_wr2RegCompleteHandler@i2c1_master_example$F168 1EEE  
          _wr2RegCompleteHandler@i2c1_master_example$F168 1EBE  
     fp__rdBlkRegCompleteHandler@i2c1_master_example$F179 0000  
__end_of_rdBlkRegCompleteHandler@i2c1_master_example$F179 1CF4  
        _rdBlkRegCompleteHandler@i2c1_master_example$F179 1CB0  
                               __end_of_I2C1_DO_SEND_STOP 212A  
                               ??_rdBlkRegCompleteHandler 000E  
                                      I2C1_SetCallback@cb 0001  
                                     ??_I2C1_MasterSetIrq 0001  
                                                 __Hparam 0000  
                                                 __Lparam 0000  
                                     fp__I2C1_DO_TX_EMPTY 0000  
                                                 ___lodiv 12FE  
                                                 ___lomod 13EE  
                                               ?_vfprintf 0050  
                                            __psmallconst 0F00  
                                                 __pcinit 2066  
                         __end_of_EUSART2_SetErrorHandler 20D4  
                                           ?_I2C1_DO_IDLE 0001  
                                           ?_I2C1_DO_RCEN 0001  
                                                 __ramtop 0F00  
                                                 __ptext0 1B88  
                                                 __ptext1 1F1A  
                                                 __ptext2 1B22  
                                                 __ptext3 115C  
                                                 __ptext4 0F5A  
                                                 __ptext5 1586  
                                                 __ptext6 1D38  
                                                 __ptext7 1C28  
                                                 __ptext8 1796  
                                                 __ptext9 20F8  
                                _I2C1_MasterEnableRestart 217C  
                               __end_of_I2C1_MasterIsNack 2052  
                            ?_I2C1_SetAddressNackCallback 0007  
                      _EUSART2_DefaultOverrunErrorHandler 000000  
                                   _OSCILLATOR_Initialize 2010  
                               __end_of_I2C1_MasterSetIrq 2150  
                                __end_of_I2C1_DO_TX_EMPTY 1A4A  
                                ??_PIN_MANAGER_Initialize 0001  
                                              ?_I2C1_Open 0001  
                                 fp__I2C1_DO_RX_NACK_STOP 0000  
                                ?_I2C1_CallbackReturnStop 000C  
                       __end_of_I2C1_DO_SEND_RESTART_READ 2142  
                                    end_of_initialization 2072  
                              __end_of_I2C1_MasterSendAck 2156  
                                          main@sensor_val 005E  
                                     _I2C1_MasterClearIrq 2162  
                                                 fputc@fp 0005  
                              __end_of_I2C1_MasterStartRx 2170  
                                                 fputs@fp 000E  
                                  ?_rd1RegCompleteHandler 000C  
                                  _I2C1_DO_SEND_ADR_WRITE 208A  
                            __end_of_I2C1_DO_SEND_RESTART 2132  
                                 __end_of_I2C1_MasterOpen 1F86  
                                  ?_wr1RegCompleteHandler 000C  
                                 __end_of_I2C1_MasterStop 217C  
                                 __end_of_I2C1_Initialize 2066  
                                             _I2C1_Poller 1F86  
                               ?_I2C1_CallbackReturnReset 000C  
                                      _EUSART2_Initialize 1BDA  
                           __end_of_I2C1_MasterDisableIrq 2162  
                                             _I2C1_Status 0060  
                                fp__rd2RegCompleteHandler 0000  
                                       __end_of_vfpfcnvrt 12FE  
                                                 postdec2 000FDD  
                                fp__wr2RegCompleteHandler 0000  
                                                 postinc0 000FEE  
                                                 postinc1 000FE6  
                                                 postinc2 000FDE  
                                     _I2C1_MasterSendNack 2156  
                     __end_of_I2C1_SetAddressNackCallback 1FC0  
                             _I2C1_SetAddressNackCallback 1FA4  
                                              ??_vfprintf 0056  
                                    ?_I2C1_MasterClearIrq 0001  
                                          ??_I2C1_DO_IDLE 0001  
                                          ??_I2C1_DO_RCEN 0001  
                      __end_of_I2C1_DO_SEND_RESTART_WRITE 213A  
                              _I2C1_DO_SEND_RESTART_WRITE 2132  
                                     ?_EUSART2_Initialize 0001  
                                                 strlen@a 0003  
                                                 strlen@s 0001  
                         __end_of_rdBlkRegCompleteHandler 1D38  
                           ??_I2C1_SetAddressNackCallback 000C  
                         I2C1_SetDataCompleteCallback@ptr 000A  
                          I2C1_CallbackReturnReset@funPtr 000C  
                                    ?_I2C1_MasterSendNack 0001  
                                    ??_EUSART2_Initialize 0004  
                                   ??_I2C1_MasterClearIrq 0001  
                                             vfpfcnvrt@ap 0042  
                                             vfpfcnvrt@fp 003E  
                                          _I2C1_DO_RX_ACK 211A  
                                  ?_OSCILLATOR_Initialize 0001  
                         __end_of_I2C1_CallbackReturnStop 2178  
                                          __end_of_printf 1F40  
                           __end_of_I2C1_MasterSendTxData 214A  
                                 ??_i2c_read2ByteRegister 0014  
                                          __end_of_strlen 1D6E  
                                     start_initialization 2066  
                                         ___lodiv@divisor 0009  
                                             ??_I2C1_Open 0001  
                                         ___lodiv@counter 0019  
                                             __end_of_pad 164C  
                                   ??_I2C1_MasterSendNack 0001  
                                             putch@txData 0002  
                                   __end_of_EUSART2_Write 2010  
                                  rd1RegCompleteHandler@p 000C  
                                I2C1_SetBuffer@bufferSize 0003  
                                        ?_I2C1_MasterOpen 0001  
                  __end_of_EUSART2_SetOverrunErrorHandler 20B8  
                          _EUSART2_SetOverrunErrorHandler 20AA  
                                        ?_I2C1_MasterStop 0001  
                                        ?_I2C1_Initialize 0001  
                                             vfprintf@fmt 0052  
                                        ??_PMD_Initialize 0001  
                                  __end_of_I2C1_DO_RX_ACK 2122  
                                  wr1RegCompleteHandler@p 000C  
                                 ??_I2C1_DO_SEND_ADR_READ 0001  
                                                ??_printf 005C  
                                                ??_strlen 0003  
                                        I2C1_Open@address 0001  
                                    _I2C1_DO_SEND_RESTART 212A  
                                           __pcstackBANK0 00BC  
                             ??_I2C1_DO_SEND_RESTART_READ 0001  
                                     EUSART2_Write@txData 0001  
                                    __end_of_I2C1_DO_IDLE 20F8  
                                    __end_of_I2C1_DO_RCEN 20EC  
                           I2C1_SetAddressNackCallback@cb 0007  
                                               __pnvBANK0 00B3  
                                   _rd2RegCompleteHandler 1E2E  
                               fp__I2C1_DO_SEND_ADR_WRITE 0000  
                                  _PIN_MANAGER_Initialize 182C  
                                   _wr2RegCompleteHandler 1DFE  
                              ??_I2C1_MasterEnableRestart 0001  
                                          _I2C1_MasterFsm 1A4A  
                                        fp__I2C1_DO_RESET 0000  
                                         ?_I2C1_DO_RX_ACK 0001  
                                                ?___lodiv 0001  
                                                ?___lomod 0001  
                                 _I2C1_MasterWaitForEvent 2078  
                                        _I2C1_MasterClose 2184  
                                          _I2C1_SetBuffer 1F40  
                             i2c_read2ByteRegister@result 0018  
                                        _I2C1_MasterStart 2180  
                                        _I2C1_MasterWrite 2102  
                                         ___lomod@divisor 0009  
                                                _BAUD2CON 000E9A  
                                             __smallconst 0F00  
                                         ___lomod@counter 0011  
                                   ?_I2C1_DO_SEND_RESTART 0001  
                                       ?_I2C1_DO_TX_EMPTY 0001  
                        __end_of_I2C1_CallbackReturnReset 2174  
                                      ??_I2C1_DO_TX_EMPTY 000E  
                                 ??_rd1RegCompleteHandler 000E  
                                 ?_I2C1_DO_SEND_ADR_WRITE 0001  
                               I2C1_MasterSendTxData@data 0001  
                                 ??_wr1RegCompleteHandler 000E  
                                        _I2C1_SetCallback 1948  
                 EUSART2_SetErrorHandler@interruptHandler 0001  
                                              _I2C1_DO_RX 164C  
                                              _I2C1_DO_TX 14BE  
                                                _PIE3bits 000EC0  
                                              _I2C1_Close 1EEE  
                                            ?_I2C1_Poller 0001  
                                  __end_of_I2C1_MasterFsm 1AB6  
                            __end_of_I2C1_MasterGetRxData 216C  
                                                _PIR3bits 000EC8  
                                      _I2C1_MasterSendAck 2150  
                               _I2C1_DO_SEND_RESTART_READ 213A  
                                                _SSP1CON1 000F95  
                                                _SSP1CON2 000F96  
                                  __end_of_I2C1_SetBuffer 1F64  
                                                _SSP1STAT 000F94  
                    __end_of_I2C1_SetDataCompleteCallback 1FDC  
                            _I2C1_SetDataCompleteCallback 1FC0  
                                      _I2C1_MasterStartRx 216C  
                                               _vfpfcnvrt 115C  
                             ?_I2C1_DO_SEND_RESTART_WRITE 0001  
                                     ?_I2C1_MasterSendAck 0001  
                                ?_I2C1_DO_RX_NACK_RESTART 0001  
                                    fp__I2C1_DO_SEND_STOP 0000  
                                     ?_I2C1_MasterStartRx 0001  
                            __end_of_I2C1_DO_ADDRESS_NACK 1B22  
                          __end_of_I2C1_DO_SEND_ADR_WRITE 209A  
                                           _I2C1_DO_RESET 20D4  
                                   I2C1_Close@returnValue 0001  
                                ?_rdBlkRegCompleteHandler 000C  
                                     I2C1_SetCallback@idx 0006  
                                     I2C1_SetCallback@ptr 0004  
                                 _EUSART2_SetErrorHandler 20C6  
                                    ??_I2C1_MasterSendAck 0001  
                                  ?_rd2RegCompleteHandler 000C  
                             _EUSART2_OverrunErrorHandler 00B6  
                            __end_of_I2C1_MasterOperation 1CB0  
                                  ?_wr2RegCompleteHandler 000C  
                                    ??_I2C1_MasterStartRx 0001  
                                                __Hrparam 0000  
                                         ?_I2C1_MasterFsm 0001  
                                              vfprintf@ap 0054  
                                                __Lrparam 0000  
                                              vfprintf@fp 0050  
                               ??_I2C1_MasterWaitForEvent 0001  
                                   _I2C1_MasterDisableIrq 215C  
                                 ??_OSCILLATOR_Initialize 0001  
                                         ?_I2C1_SetBuffer 0001  
                                              ?_vfpfcnvrt 003E  
                                  ??_I2C1_DO_SEND_RESTART 0001  
                                    _EUSART2_ErrorHandler 00B3  
                                          ?_I2C1_DO_RESET 0001  
                           __end_of_i2c_read2ByteRegister 1948  
                                                __ptext10 1FF8  
                                                __ptext11 13EE  
                                                __ptext20 2078  
                                                __ptext12 12FE  
                                                __ptext21 1A4A  
                                                __ptext13 18C2  
                                                __ptext30 213A  
                                                __ptext22 1AB6  
                                                __ptext14 1FA4  
                                                __ptext31 20E0  
                                                __ptext23 20D4  
                                                __ptext15 16F4  
                                                __ptext40 2142  
                                                __ptext32 164C  
                                                __ptext24 210A  
                                                __ptext16 1F64  
                                                __ptext41 2150  
                                                __ptext33 14BE  
                                                __ptext25 2112  
                                                __ptext17 2102  
                                                __ptext50 1DCE  
                                                __ptext42 2168  
                                                __ptext34 208A  
                                                __ptext26 211A  
                                                __ptext18 1C6C  
                                                __ptext51 1CF4  
                                                __ptext43 2156  
                                                __ptext35 209A  
                                                __ptext27 2122  
                                                __ptext19 1F86  
                                                __ptext60 2178  
                                                __ptext52 1DFE  
                                                __ptext44 216C  
                                                __ptext36 20EC  
                                                __ptext28 212A  
                                                __ptext61 217C  
                                                __ptext53 1E2E  
                                                __ptext45 2170  
                                                __ptext37 19CC  
                                                __ptext29 2132  
                                                __ptext70 2010  
                                                __ptext62 2180  
                                                __ptext54 1E5E  
                                                __ptext46 2174  
                                                __ptext38 214A  
                                                __ptext71 2052  
                                                __ptext63 1EEE  
                                                __ptext55 1E8E  
                                                __ptext47 1CB0  
                                                __ptext39 203E  
                                                __ptext72 1BDA  
                                                __ptext64 215C  
                                                __ptext56 1EBE  
                                                __ptext48 1D6E  
                                                __ptext73 20AA  
                                                __ptext65 2184  
                                                __ptext57 1FC0  
                                                __ptext49 1D9E  
                                                __ptext74 20B8  
                                                __ptext66 2162  
                                                __ptext58 1948  
                                                __ptext75 20C6  
                                                __ptext67 2028  
                                                __ptext59 1F40  
                                                __ptext76 0000  
                                                __ptext68 1FDC  
                                                __ptext69 182C  
                                            _SSP1CON1bits 000F95  
                                            _SSP1CON2bits 000F96  
                                _I2C1_CallbackReturnReset 2170  
                             fp__I2C1_CallbackReturnReset 0000  
                                             ?_I2C1_DO_RX 0001  
                                             ?_I2C1_DO_TX 0001  
                      _EUSART2_DefaultFramingErrorHandler 000000  
                             __end_of_I2C1_MasterClearIrq 2168  
                            __end_of_I2C1_DO_RX_NACK_STOP 211A  
                                             ?_I2C1_Close 0001  
                                              _RC2STAbits 000E98  
          EUSART2_SetOverrunErrorHandler@interruptHandler 0001  
                                                isa$xinst 000000  
                ?_wr1RegCompleteHandler@pic18f47q10$F1953 000C  
               ??_rd2RegCompleteHandler@pic18f47q10$F1970 000E  
                ?_rd1RegCompleteHandler@pic18f47q10$F1962 000C  
               ??_wr1RegCompleteHandler@pic18f47q10$F1955 000E  
               ??_rd1RegCompleteHandler@pic18f47q10$F1964 000E  
             ??_rdBlkRegCompleteHandler@pic18f47q10$F1981 000E  
                ?_wr2RegCompleteHandler@pic18f47q10$F1973 000C  
               ??_wr2RegCompleteHandler@pic18f47q10$F1975 000E  
                ?_rd2RegCompleteHandler@pic18f47q10$F1968 000C  
              ?_rdBlkRegCompleteHandler@pic18f47q10$F1979 000C  
                         __end_of_I2C1_DO_RX_NACK_RESTART 2112  
                                I2C1_MasterOperation@read 0010  
                                                _vfprintf 1B22  
                                               printf@fmt 0058  
                                            _SSP1STATbits 000F94  
                           __end_of_I2C1_DO_SEND_ADR_READ 20AA  
                                            _I2C1_DO_IDLE 20EC  
                                            _I2C1_DO_RCEN 20E0  
                             __end_of_I2C1_MasterSendNack 215C  
                        ??_EUSART2_SetOverrunErrorHandler 0004  
                         ?_EUSART2_SetOverrunErrorHandler 0001  
                           fp__I2C1_DO_SEND_RESTART_WRITE 0000  
                          I2C1_SetAddressNackCallback@ptr 000A  
                                    _I2C1_MasterGetRxData 2168  
                                   _I2C1_MasterSendTxData 2142  
                               ??_EUSART2_SetErrorHandler 0004  
                                __end_of_I2C1_MasterClose 2188  
                                  rd2RegCompleteHandler@p 000C  
                                 ?_PIN_MANAGER_Initialize 0001  
                                __end_of_I2C1_MasterStart 2184  
                                __end_of_I2C1_MasterWrite 210A  
                                        ??_I2C1_DO_RX_ACK 0001  
                                 _I2C1_CallbackReturnStop 2174  
                              fp__I2C1_CallbackReturnStop 0000  
                                    _I2C1_DO_ADDRESS_NACK 1AB6  
                                  ?_I2C1_MasterDisableIrq 0001  
                            i2c_read2ByteRegister@address 0017  
                                                printf@ap 005C  
                                  wr2RegCompleteHandler@p 000C  
          EUSART2_SetFramingErrorHandler@interruptHandler 0001  
                                             ??_vfpfcnvrt 0044  
                                __end_of_I2C1_SetCallback 19CC  
                                              _SSP1DATPPS 000EB3  
                                              _SSP1CLKPPS 000EB2  
                                         ??_I2C1_DO_RESET 0001  
                                    _I2C1_MasterOperation 1C6C  
                                   ?_I2C1_MasterGetRxData 0001  
                                i2c_read2ByteRegister@reg 0012  
                                              _TX2STAbits 000E99  
                          __end_of_PIN_MANAGER_Initialize 18C2  
                           __end_of_rd1RegCompleteHandler 1E8E  
                                      _eusart2RxLastError 0092  
                           __end_of_wr1RegCompleteHandler 1EBE  
                                   ?_I2C1_DO_ADDRESS_NACK 0001  
